ARM GAS  /tmp/ccIhDfol.s 			page 1


   1              		.syntax unified
   2              		.cpu cortex-m3
   3              		.fpu softvfp
   4              		.eabi_attribute 20, 1
   5              		.eabi_attribute 21, 1
   6              		.eabi_attribute 23, 3
   7              		.eabi_attribute 24, 1
   8              		.eabi_attribute 25, 1
   9              		.eabi_attribute 26, 1
  10              		.eabi_attribute 30, 1
  11              		.eabi_attribute 34, 1
  12              		.eabi_attribute 18, 4
  13              		.thumb
  14              		.syntax unified
  15              		.file	"delay.c"
  16              		.text
  17              	.Ltext0:
  18              		.cfi_sections	.debug_frame
  19              		.section	.text._init_us,"ax",%progbits
  20              		.align	2
  21              		.global	_init_us
  22              		.thumb
  23              		.thumb_func
  25              	_init_us:
  26              	.LFB64:
  27              		.file 1 "./Src/delay.c"
   1:./Src/delay.c **** #include "stm32f1xx_hal.h"
   2:./Src/delay.c **** #include <stdint.h>
   3:./Src/delay.c **** #include "delay.h"
   4:./Src/delay.c **** 
   5:./Src/delay.c **** TIM_HandleTypeDef TimHandle;
   6:./Src/delay.c **** 
   7:./Src/delay.c **** // Init timer for Microseconds delays
   8:./Src/delay.c **** void _init_us() {
  28              		.loc 1 8 0
  29              		.cfi_startproc
  30              		@ args = 0, pretend = 0, frame = 8
  31              		@ frame_needed = 0, uses_anonymous_args = 0
  32 0000 10B5     		push	{r4, lr}
  33              	.LCFI0:
  34              		.cfi_def_cfa_offset 8
  35              		.cfi_offset 4, -8
  36              		.cfi_offset 14, -4
  37 0002 82B0     		sub	sp, sp, #8
  38              	.LCFI1:
  39              		.cfi_def_cfa_offset 16
  40              	.LBB2:
   9:./Src/delay.c ****         __HAL_RCC_TIM2_CLK_ENABLE();
  41              		.loc 1 9 0
  42 0004 114B     		ldr	r3, .L3
  43 0006 DA69     		ldr	r2, [r3, #28]
  44 0008 42F00102 		orr	r2, r2, #1
  45 000c DA61     		str	r2, [r3, #28]
  46 000e DB69     		ldr	r3, [r3, #28]
  47 0010 03F00103 		and	r3, r3, #1
  48 0014 0193     		str	r3, [sp, #4]
  49 0016 019B     		ldr	r3, [sp, #4]
ARM GAS  /tmp/ccIhDfol.s 			page 2


  50              	.LBE2:
  10:./Src/delay.c ****         TimHandle.Instance = TIM2;
  51              		.loc 1 10 0
  52 0018 0D4C     		ldr	r4, .L3+4
  53 001a 4FF08043 		mov	r3, #1073741824
  54 001e 2360     		str	r3, [r4]
  11:./Src/delay.c ****         TimHandle.Init.Period = UINT16_MAX;
  55              		.loc 1 11 0
  56 0020 4FF6FF73 		movw	r3, #65535
  57 0024 E360     		str	r3, [r4, #12]
  12:./Src/delay.c ****         TimHandle.Init.Prescaler = (SystemCoreClock/DELAY_TIM_FREQUENCY_US)-1;;
  58              		.loc 1 12 0
  59 0026 0B4B     		ldr	r3, .L3+8
  60 0028 1B68     		ldr	r3, [r3]
  61 002a 0B4A     		ldr	r2, .L3+12
  62 002c A2FB0323 		umull	r2, r3, r2, r3
  63 0030 9B0C     		lsrs	r3, r3, #18
  64 0032 013B     		subs	r3, r3, #1
  65 0034 6360     		str	r3, [r4, #4]
  13:./Src/delay.c ****         TimHandle.Init.ClockDivision = 0;
  66              		.loc 1 13 0
  67 0036 0023     		movs	r3, #0
  68 0038 2361     		str	r3, [r4, #16]
  14:./Src/delay.c ****         TimHandle.Init.CounterMode = TIM_COUNTERMODE_UP;        
  69              		.loc 1 14 0
  70 003a A360     		str	r3, [r4, #8]
  15:./Src/delay.c ****         HAL_TIM_Base_Init(&TimHandle);
  71              		.loc 1 15 0
  72 003c 2046     		mov	r0, r4
  73 003e FFF7FEFF 		bl	HAL_TIM_Base_Init
  74              	.LVL0:
  16:./Src/delay.c ****           
  17:./Src/delay.c ****         HAL_TIM_Base_Start(&TimHandle);
  75              		.loc 1 17 0
  76 0042 2046     		mov	r0, r4
  77 0044 FFF7FEFF 		bl	HAL_TIM_Base_Start
  78              	.LVL1:
  18:./Src/delay.c **** }
  79              		.loc 1 18 0
  80 0048 02B0     		add	sp, sp, #8
  81              	.LCFI2:
  82              		.cfi_def_cfa_offset 8
  83              		@ sp needed
  84 004a 10BD     		pop	{r4, pc}
  85              	.L4:
  86              		.align	2
  87              	.L3:
  88 004c 00100240 		.word	1073876992
  89 0050 00000000 		.word	TimHandle
  90 0054 00000000 		.word	SystemCoreClock
  91 0058 83DE1B43 		.word	1125899907
  92              		.cfi_endproc
  93              	.LFE64:
  95              		.section	.text._init_ms,"ax",%progbits
  96              		.align	2
  97              		.global	_init_ms
  98              		.thumb
ARM GAS  /tmp/ccIhDfol.s 			page 3


  99              		.thumb_func
 101              	_init_ms:
 102              	.LFB65:
  19:./Src/delay.c **** 
  20:./Src/delay.c **** // Init and start timer for Milliseconds delays
  21:./Src/delay.c **** void _init_ms() {
 103              		.loc 1 21 0
 104              		.cfi_startproc
 105              		@ args = 0, pretend = 0, frame = 8
 106              		@ frame_needed = 0, uses_anonymous_args = 0
 107 0000 10B5     		push	{r4, lr}
 108              	.LCFI3:
 109              		.cfi_def_cfa_offset 8
 110              		.cfi_offset 4, -8
 111              		.cfi_offset 14, -4
 112 0002 82B0     		sub	sp, sp, #8
 113              	.LCFI4:
 114              		.cfi_def_cfa_offset 16
 115              	.LBB3:
  22:./Src/delay.c ****         __HAL_RCC_TIM2_CLK_ENABLE();
 116              		.loc 1 22 0
 117 0004 114B     		ldr	r3, .L7
 118 0006 DA69     		ldr	r2, [r3, #28]
 119 0008 42F00102 		orr	r2, r2, #1
 120 000c DA61     		str	r2, [r3, #28]
 121 000e DB69     		ldr	r3, [r3, #28]
 122 0010 03F00103 		and	r3, r3, #1
 123 0014 0193     		str	r3, [sp, #4]
 124 0016 019B     		ldr	r3, [sp, #4]
 125              	.LBE3:
  23:./Src/delay.c ****         TimHandle.Instance = TIM2;
 126              		.loc 1 23 0
 127 0018 0D4C     		ldr	r4, .L7+4
 128 001a 4FF08043 		mov	r3, #1073741824
 129 001e 2360     		str	r3, [r4]
  24:./Src/delay.c ****         TimHandle.Init.Period = UINT16_MAX;
 130              		.loc 1 24 0
 131 0020 4FF6FF73 		movw	r3, #65535
 132 0024 E360     		str	r3, [r4, #12]
  25:./Src/delay.c ****         TimHandle.Init.Prescaler = (SystemCoreClock/DELAY_TIM_FREQUENCY_MS)-1;;
 133              		.loc 1 25 0
 134 0026 0B4B     		ldr	r3, .L7+8
 135 0028 1B68     		ldr	r3, [r3]
 136 002a 0B4A     		ldr	r2, .L7+12
 137 002c A2FB0323 		umull	r2, r3, r2, r3
 138 0030 9B09     		lsrs	r3, r3, #6
 139 0032 013B     		subs	r3, r3, #1
 140 0034 6360     		str	r3, [r4, #4]
  26:./Src/delay.c ****         TimHandle.Init.ClockDivision = 0;
 141              		.loc 1 26 0
 142 0036 0023     		movs	r3, #0
 143 0038 2361     		str	r3, [r4, #16]
  27:./Src/delay.c ****         TimHandle.Init.CounterMode = TIM_COUNTERMODE_UP;        
 144              		.loc 1 27 0
 145 003a A360     		str	r3, [r4, #8]
  28:./Src/delay.c ****         HAL_TIM_Base_Init(&TimHandle);
 146              		.loc 1 28 0
ARM GAS  /tmp/ccIhDfol.s 			page 4


 147 003c 2046     		mov	r0, r4
 148 003e FFF7FEFF 		bl	HAL_TIM_Base_Init
 149              	.LVL2:
  29:./Src/delay.c **** 
  30:./Src/delay.c ****         HAL_TIM_Base_Start(&TimHandle);       
 150              		.loc 1 30 0
 151 0042 2046     		mov	r0, r4
 152 0044 FFF7FEFF 		bl	HAL_TIM_Base_Start
 153              	.LVL3:
  31:./Src/delay.c **** }
 154              		.loc 1 31 0
 155 0048 02B0     		add	sp, sp, #8
 156              	.LCFI5:
 157              		.cfi_def_cfa_offset 8
 158              		@ sp needed
 159 004a 10BD     		pop	{r4, pc}
 160              	.L8:
 161              		.align	2
 162              	.L7:
 163 004c 00100240 		.word	1073876992
 164 0050 00000000 		.word	TimHandle
 165 0054 00000000 		.word	SystemCoreClock
 166 0058 D34D6210 		.word	274877907
 167              		.cfi_endproc
 168              	.LFE65:
 170              		.section	.text._stop_timer,"ax",%progbits
 171              		.align	2
 172              		.global	_stop_timer
 173              		.thumb
 174              		.thumb_func
 176              	_stop_timer:
 177              	.LFB66:
  32:./Src/delay.c **** 
  33:./Src/delay.c **** 
  34:./Src/delay.c **** // Stop timer
  35:./Src/delay.c **** void _stop_timer() {
 178              		.loc 1 35 0
 179              		.cfi_startproc
 180              		@ args = 0, pretend = 0, frame = 0
 181              		@ frame_needed = 0, uses_anonymous_args = 0
 182 0000 08B5     		push	{r3, lr}
 183              	.LCFI6:
 184              		.cfi_def_cfa_offset 8
 185              		.cfi_offset 3, -8
 186              		.cfi_offset 14, -4
  36:./Src/delay.c **** 	HAL_TIM_Base_Stop(&TimHandle);
 187              		.loc 1 36 0
 188 0002 0448     		ldr	r0, .L11
 189 0004 FFF7FEFF 		bl	HAL_TIM_Base_Stop
 190              	.LVL4:
  37:./Src/delay.c ****         __HAL_RCC_TIM2_CLK_DISABLE();
 191              		.loc 1 37 0
 192 0008 034A     		ldr	r2, .L11+4
 193 000a D369     		ldr	r3, [r2, #28]
 194 000c 23F00103 		bic	r3, r3, #1
 195 0010 D361     		str	r3, [r2, #28]
 196 0012 08BD     		pop	{r3, pc}
ARM GAS  /tmp/ccIhDfol.s 			page 5


 197              	.L12:
 198              		.align	2
 199              	.L11:
 200 0014 00000000 		.word	TimHandle
 201 0018 00100240 		.word	1073876992
 202              		.cfi_endproc
 203              	.LFE66:
 205              		.section	.text.Delay_ms,"ax",%progbits
 206              		.align	2
 207              		.global	Delay_ms
 208              		.thumb
 209              		.thumb_func
 211              	Delay_ms:
 212              	.LFB67:
  38:./Src/delay.c **** }
  39:./Src/delay.c **** 
  40:./Src/delay.c **** // Do delay for nTime milliseconds
  41:./Src/delay.c **** void Delay_ms(uint32_t mSecs) {
 213              		.loc 1 41 0
 214              		.cfi_startproc
 215              		@ args = 0, pretend = 0, frame = 0
 216              		@ frame_needed = 0, uses_anonymous_args = 0
 217              	.LVL5:
 218 0000 10B5     		push	{r4, lr}
 219              	.LCFI7:
 220              		.cfi_def_cfa_offset 8
 221              		.cfi_offset 4, -8
 222              		.cfi_offset 14, -4
 223 0002 0446     		mov	r4, r0
  42:./Src/delay.c **** 	// Init and start timer
  43:./Src/delay.c **** 	_init_ms();
 224              		.loc 1 43 0
 225 0004 FFF7FEFF 		bl	_init_ms
 226              	.LVL6:
  44:./Src/delay.c **** 
  45:./Src/delay.c **** 	// Dummy loop with 16 bit count wrap around
  46:./Src/delay.c **** 	uint32_t start = TIM2->CNT;
 227              		.loc 1 46 0
 228 0008 4FF08043 		mov	r3, #1073741824
 229 000c 5A6A     		ldr	r2, [r3, #36]
 230              	.LVL7:
 231              	.L14:
  47:./Src/delay.c **** 	while((TIM2->CNT-start) <= mSecs);
 232              		.loc 1 47 0 discriminator 1
 233 000e 4FF08043 		mov	r3, #1073741824
 234 0012 5B6A     		ldr	r3, [r3, #36]
 235 0014 9B1A     		subs	r3, r3, r2
 236 0016 A342     		cmp	r3, r4
 237 0018 F9D9     		bls	.L14
  48:./Src/delay.c **** 
  49:./Src/delay.c **** 	// Stop timer
  50:./Src/delay.c **** 	_stop_timer();
 238              		.loc 1 50 0
 239 001a FFF7FEFF 		bl	_stop_timer
 240              	.LVL8:
 241 001e 10BD     		pop	{r4, pc}
 242              		.cfi_endproc
ARM GAS  /tmp/ccIhDfol.s 			page 6


 243              	.LFE67:
 245              		.section	.text.Delay_us,"ax",%progbits
 246              		.align	2
 247              		.global	Delay_us
 248              		.thumb
 249              		.thumb_func
 251              	Delay_us:
 252              	.LFB68:
  51:./Src/delay.c **** }
  52:./Src/delay.c **** 
  53:./Src/delay.c **** // Do delay for nTime microseconds
  54:./Src/delay.c **** void Delay_us(uint32_t uSecs) {
 253              		.loc 1 54 0
 254              		.cfi_startproc
 255              		@ args = 0, pretend = 0, frame = 0
 256              		@ frame_needed = 0, uses_anonymous_args = 0
 257              	.LVL9:
 258 0000 10B5     		push	{r4, lr}
 259              	.LCFI8:
 260              		.cfi_def_cfa_offset 8
 261              		.cfi_offset 4, -8
 262              		.cfi_offset 14, -4
 263 0002 0446     		mov	r4, r0
  55:./Src/delay.c **** 	// Init and start timer
  56:./Src/delay.c **** 	_init_us();
 264              		.loc 1 56 0
 265 0004 FFF7FEFF 		bl	_init_us
 266              	.LVL10:
  57:./Src/delay.c **** 
  58:./Src/delay.c **** 	// Dummy loop with 16 bit count wrap around
  59:./Src/delay.c **** 	uint32_t start = TIM2->CNT;
 267              		.loc 1 59 0
 268 0008 4FF08043 		mov	r3, #1073741824
 269 000c 5A6A     		ldr	r2, [r3, #36]
 270              	.LVL11:
 271              	.L17:
  60:./Src/delay.c **** 	while((TIM2->CNT-start) <= uSecs);
 272              		.loc 1 60 0 discriminator 1
 273 000e 4FF08043 		mov	r3, #1073741824
 274 0012 5B6A     		ldr	r3, [r3, #36]
 275 0014 9B1A     		subs	r3, r3, r2
 276 0016 A342     		cmp	r3, r4
 277 0018 F9D9     		bls	.L17
  61:./Src/delay.c **** 
  62:./Src/delay.c **** 	// Stop timer
  63:./Src/delay.c **** 	_stop_timer();
 278              		.loc 1 63 0
 279 001a FFF7FEFF 		bl	_stop_timer
 280              	.LVL12:
 281 001e 10BD     		pop	{r4, pc}
 282              		.cfi_endproc
 283              	.LFE68:
 285              		.comm	TimHandle,60,4
 286              		.text
 287              	.Letext0:
 288              		.file 2 "/home/niklas/gcc-arm-none-eabi-5_4-2016q3/arm-none-eabi/include/machine/_default_types.h"
 289              		.file 3 "/home/niklas/gcc-arm-none-eabi-5_4-2016q3/arm-none-eabi/include/sys/_stdint.h"
ARM GAS  /tmp/ccIhDfol.s 			page 7


 290              		.file 4 "./Drivers/CMSIS/Device/ST/STM32F1xx/Include/stm32f103xe.h"
 291              		.file 5 "./Drivers/STM32F1xx_HAL_Driver/Inc/stm32f1xx_hal_def.h"
 292              		.file 6 "./Drivers/STM32F1xx_HAL_Driver/Inc/stm32f1xx_hal_dma.h"
 293              		.file 7 "./Drivers/STM32F1xx_HAL_Driver/Inc/stm32f1xx_hal_tim.h"
 294              		.file 8 "./Drivers/CMSIS/Include/core_cm3.h"
 295              		.file 9 "./Drivers/CMSIS/Device/ST/STM32F1xx/Include/system_stm32f1xx.h"
ARM GAS  /tmp/ccIhDfol.s 			page 8

