Archive member included to satisfy reference by file (symbol)

/home/niklas/gcc-arm-none-eabi-5_4-2016q3/bin/../lib/gcc/arm-none-eabi/5.4.1/../../../../arm-none-eabi/lib/armv7-m/libc_nano.a(lib_a-exit.o)
                              /home/niklas/gcc-arm-none-eabi-5_4-2016q3/bin/../lib/gcc/arm-none-eabi/5.4.1/../../../../arm-none-eabi/lib/armv7-m/crt0.o (exit)
/home/niklas/gcc-arm-none-eabi-5_4-2016q3/bin/../lib/gcc/arm-none-eabi/5.4.1/../../../../arm-none-eabi/lib/armv7-m/libc_nano.a(lib_a-impure.o)
                              /home/niklas/gcc-arm-none-eabi-5_4-2016q3/bin/../lib/gcc/arm-none-eabi/5.4.1/../../../../arm-none-eabi/lib/armv7-m/libc_nano.a(lib_a-exit.o) (_global_impure_ptr)
/home/niklas/gcc-arm-none-eabi-5_4-2016q3/bin/../lib/gcc/arm-none-eabi/5.4.1/../../../../arm-none-eabi/lib/armv7-m/libc_nano.a(lib_a-init.o)
                              /home/niklas/gcc-arm-none-eabi-5_4-2016q3/bin/../lib/gcc/arm-none-eabi/5.4.1/../../../../arm-none-eabi/lib/armv7-m/crt0.o (__libc_init_array)
/home/niklas/gcc-arm-none-eabi-5_4-2016q3/bin/../lib/gcc/arm-none-eabi/5.4.1/../../../../arm-none-eabi/lib/armv7-m/libc_nano.a(lib_a-memset.o)
                              /home/niklas/gcc-arm-none-eabi-5_4-2016q3/bin/../lib/gcc/arm-none-eabi/5.4.1/../../../../arm-none-eabi/lib/armv7-m/crt0.o (memset)
/home/niklas/gcc-arm-none-eabi-5_4-2016q3/bin/../lib/gcc/arm-none-eabi/5.4.1/../../../../arm-none-eabi/lib/armv7-m/libc_nano.a(lib_a-strlen.o)
                              build/uart.o (strlen)
/home/niklas/gcc-arm-none-eabi-5_4-2016q3/bin/../lib/gcc/arm-none-eabi/5.4.1/../../../../arm-none-eabi/lib/armv7-m/libnosys.a(_exit.o)
                              /home/niklas/gcc-arm-none-eabi-5_4-2016q3/bin/../lib/gcc/arm-none-eabi/5.4.1/../../../../arm-none-eabi/lib/armv7-m/libc_nano.a(lib_a-exit.o) (_exit)
/home/niklas/gcc-arm-none-eabi-5_4-2016q3/bin/../lib/gcc/arm-none-eabi/5.4.1/armv7-m/libgcc.a(_arm_addsubdf3.o)
                              build/application.o (__aeabi_dsub)
/home/niklas/gcc-arm-none-eabi-5_4-2016q3/bin/../lib/gcc/arm-none-eabi/5.4.1/armv7-m/libgcc.a(_arm_muldivdf3.o)
                              build/ADC_L.o (__aeabi_dmul)
/home/niklas/gcc-arm-none-eabi-5_4-2016q3/bin/../lib/gcc/arm-none-eabi/5.4.1/armv7-m/libgcc.a(_arm_cmpdf2.o)
                              build/main.o (__aeabi_dcmplt)
/home/niklas/gcc-arm-none-eabi-5_4-2016q3/bin/../lib/gcc/arm-none-eabi/5.4.1/armv7-m/libgcc.a(_arm_fixdfsi.o)
                              build/application.o (__aeabi_d2iz)
/home/niklas/gcc-arm-none-eabi-5_4-2016q3/bin/../lib/gcc/arm-none-eabi/5.4.1/armv7-m/libgcc.a(_arm_fixunsdfsi.o)
                              build/application.o (__aeabi_d2uiz)
/home/niklas/gcc-arm-none-eabi-5_4-2016q3/bin/../lib/gcc/arm-none-eabi/5.4.1/armv7-m/libgcc.a(_arm_truncdfsf2.o)
                              build/ADC_L.o (__aeabi_d2f)
/home/niklas/gcc-arm-none-eabi-5_4-2016q3/bin/../lib/gcc/arm-none-eabi/5.4.1/armv7-m/libgcc.a(_arm_addsubsf3.o)
                              build/pid.o (__aeabi_fsub)
/home/niklas/gcc-arm-none-eabi-5_4-2016q3/bin/../lib/gcc/arm-none-eabi/5.4.1/armv7-m/libgcc.a(_arm_muldivsf3.o)
                              build/pid.o (__aeabi_fmul)
/home/niklas/gcc-arm-none-eabi-5_4-2016q3/bin/../lib/gcc/arm-none-eabi/5.4.1/armv7-m/libgcc.a(_arm_cmpsf2.o)
                              build/pid.o (__aeabi_fcmplt)
/home/niklas/gcc-arm-none-eabi-5_4-2016q3/bin/../lib/gcc/arm-none-eabi/5.4.1/armv7-m/libgcc.a(_arm_fixsfsi.o)
                              build/pid.o (__aeabi_f2iz)

Allocating common symbols
Common symbol       size              file

uartDati            0x7b              build/uart.o
adc_Ldati           0x8               build/ADC_L.o
pid_L_Dati          0x1c              build/pid.o
lcd                 0x8c              build/main.o
wii_JOYdati         0x14              build/i2c.o
htim8               0x3c              build/motor_L.o
motorR              0x18              build/motor_R.o
hdma_usart3_rx      0x38              build/uart.o
huart3              0x40              build/uart.o
counterTemp         0x4               build/main.o
hiwdg               0x10              build/main.o
hi2c2               0x3c              build/i2c.o
Tim3PID             0x3c              build/pid.o
pid_R_              0x8               build/pid.o
motorL              0x18              build/motor_L.o
telemetry           0x1c              build/telemetry.o
hdma_adc3           0x38              build/ADC_L.o
hdma_usart3_tx      0x38              build/uart.o
pFlash              0x20              build/stm32f1xx_hal_flash.o
leftToTransfer      0x4               build/telemetry.o
hdma_i2c2_rx        0x38              build/i2c.o
battery_dati        0x14              build/application.o
hdma_i2c2_tx        0x38              build/i2c.o
hadc1               0x30              build/ADC_R.o
hadc3               0x30              build/ADC_L.o
buffer              0x6               build/ADC_R.o
adc_Rdati           0xc               build/ADC_R.o
pid_L_              0x8               build/pid.o
hdma_adc1           0x38              build/ADC_R.o
htim1               0x3c              build/motor_R.o
counterTempTT       0x4               build/main.o
commandsequence     0x8               build/telemetry.o
htim2               0x3c              build/main.o
app                 0x48              build/application.o
TimHandle           0x3c              build/delay.o
pid_R_Dati          0x1c              build/pid.o

Discarded input sections

 .text          0x00000000        0x0 /home/niklas/gcc-arm-none-eabi-5_4-2016q3/bin/../lib/gcc/arm-none-eabi/5.4.1/armv7-m/crti.o
 .data          0x00000000        0x0 /home/niklas/gcc-arm-none-eabi-5_4-2016q3/bin/../lib/gcc/arm-none-eabi/5.4.1/armv7-m/crti.o
 .bss           0x00000000        0x0 /home/niklas/gcc-arm-none-eabi-5_4-2016q3/bin/../lib/gcc/arm-none-eabi/5.4.1/armv7-m/crti.o
 .data          0x00000000        0x4 /home/niklas/gcc-arm-none-eabi-5_4-2016q3/bin/../lib/gcc/arm-none-eabi/5.4.1/armv7-m/crtbegin.o
 .text          0x00000000       0x74 /home/niklas/gcc-arm-none-eabi-5_4-2016q3/bin/../lib/gcc/arm-none-eabi/5.4.1/../../../../arm-none-eabi/lib/armv7-m/crt0.o
 .data          0x00000000        0x0 /home/niklas/gcc-arm-none-eabi-5_4-2016q3/bin/../lib/gcc/arm-none-eabi/5.4.1/../../../../arm-none-eabi/lib/armv7-m/crt0.o
 .bss           0x00000000        0x0 /home/niklas/gcc-arm-none-eabi-5_4-2016q3/bin/../lib/gcc/arm-none-eabi/5.4.1/../../../../arm-none-eabi/lib/armv7-m/crt0.o
 .ARM.extab     0x00000000        0x0 /home/niklas/gcc-arm-none-eabi-5_4-2016q3/bin/../lib/gcc/arm-none-eabi/5.4.1/../../../../arm-none-eabi/lib/armv7-m/crt0.o
 .ARM.exidx     0x00000000        0x8 /home/niklas/gcc-arm-none-eabi-5_4-2016q3/bin/../lib/gcc/arm-none-eabi/5.4.1/../../../../arm-none-eabi/lib/armv7-m/crt0.o
 .ARM.attributes
                0x00000000       0x1b /home/niklas/gcc-arm-none-eabi-5_4-2016q3/bin/../lib/gcc/arm-none-eabi/5.4.1/../../../../arm-none-eabi/lib/armv7-m/crt0.o
 .text          0x00000000        0x0 build/stm32f1xx_hal_adc.o
 .data          0x00000000        0x0 build/stm32f1xx_hal_adc.o
 .bss           0x00000000        0x0 build/stm32f1xx_hal_adc.o
 .text.HAL_ADC_MspInit
                0x00000000        0x4 build/stm32f1xx_hal_adc.o
 .text.HAL_ADC_MspDeInit
                0x00000000        0x4 build/stm32f1xx_hal_adc.o
 .text.HAL_ADC_PollForConversion
                0x00000000      0x174 build/stm32f1xx_hal_adc.o
 .text.HAL_ADC_PollForEvent
                0x00000000       0x50 build/stm32f1xx_hal_adc.o
 .text.HAL_ADC_GetValue
                0x00000000        0x8 build/stm32f1xx_hal_adc.o
 .text.HAL_ADC_ConvCpltCallback
                0x00000000        0x4 build/stm32f1xx_hal_adc.o
 .text.HAL_ADC_LevelOutOfWindowCallback
                0x00000000        0x4 build/stm32f1xx_hal_adc.o
 .text.HAL_ADC_IRQHandler
                0x00000000      0x104 build/stm32f1xx_hal_adc.o
 .text.HAL_ADC_AnalogWDGConfig
                0x00000000       0x60 build/stm32f1xx_hal_adc.o
 .text.HAL_ADC_GetState
                0x00000000        0x4 build/stm32f1xx_hal_adc.o
 .text.HAL_ADC_GetError
                0x00000000        0x4 build/stm32f1xx_hal_adc.o
 .text.HAL_ADC_Start_IT
                0x00000000      0x104 build/stm32f1xx_hal_adc.o
 .text.HAL_ADC_DeInit
                0x00000000       0xfc build/stm32f1xx_hal_adc.o
 .text.HAL_ADC_Stop
                0x00000000       0x38 build/stm32f1xx_hal_adc.o
 .text.HAL_ADC_Stop_IT
                0x00000000       0x44 build/stm32f1xx_hal_adc.o
 .text.HAL_ADC_Stop_DMA
                0x00000000       0x58 build/stm32f1xx_hal_adc.o
 .text          0x00000000        0x0 build/stm32f1xx_hal_tim_ex.o
 .data          0x00000000        0x0 build/stm32f1xx_hal_tim_ex.o
 .bss           0x00000000        0x0 build/stm32f1xx_hal_tim_ex.o
 .text.TIM_CCxNChannelCmd
                0x00000000       0x1c build/stm32f1xx_hal_tim_ex.o
 .text.HAL_TIMEx_HallSensor_MspInit
                0x00000000        0x4 build/stm32f1xx_hal_tim_ex.o
 .text.HAL_TIMEx_HallSensor_Init
                0x00000000       0xc4 build/stm32f1xx_hal_tim_ex.o
 .text.HAL_TIMEx_HallSensor_MspDeInit
                0x00000000        0x4 build/stm32f1xx_hal_tim_ex.o
 .text.HAL_TIMEx_HallSensor_DeInit
                0x00000000       0x3c build/stm32f1xx_hal_tim_ex.o
 .text.HAL_TIMEx_HallSensor_Start
                0x00000000       0x1c build/stm32f1xx_hal_tim_ex.o
 .text.HAL_TIMEx_HallSensor_Stop
                0x00000000       0x30 build/stm32f1xx_hal_tim_ex.o
 .text.HAL_TIMEx_HallSensor_Start_IT
                0x00000000       0x28 build/stm32f1xx_hal_tim_ex.o
 .text.HAL_TIMEx_HallSensor_Stop_IT
                0x00000000       0x3c build/stm32f1xx_hal_tim_ex.o
 .text.HAL_TIMEx_HallSensor_Start_DMA
                0x00000000       0x74 build/stm32f1xx_hal_tim_ex.o
 .text.HAL_TIMEx_HallSensor_Stop_DMA
                0x00000000       0x3c build/stm32f1xx_hal_tim_ex.o
 .text.HAL_TIMEx_OCN_Start
                0x00000000       0x24 build/stm32f1xx_hal_tim_ex.o
 .text.HAL_TIMEx_OCN_Stop
                0x00000000       0x4c build/stm32f1xx_hal_tim_ex.o
 .text.HAL_TIMEx_OCN_Start_IT
                0x00000000       0x74 build/stm32f1xx_hal_tim_ex.o
 .text.HAL_TIMEx_OCN_Stop_IT
                0x00000000       0xa4 build/stm32f1xx_hal_tim_ex.o
 .text.HAL_TIMEx_OCN_Start_DMA
                0x00000000      0x100 build/stm32f1xx_hal_tim_ex.o
 .text.HAL_TIMEx_OCN_Stop_DMA
                0x00000000       0x98 build/stm32f1xx_hal_tim_ex.o
 .text.HAL_TIMEx_PWMN_Start
                0x00000000       0x24 build/stm32f1xx_hal_tim_ex.o
 .text.HAL_TIMEx_PWMN_Stop
                0x00000000       0x4c build/stm32f1xx_hal_tim_ex.o
 .text.HAL_TIMEx_PWMN_Start_IT
                0x00000000       0x74 build/stm32f1xx_hal_tim_ex.o
 .text.HAL_TIMEx_PWMN_Stop_IT
                0x00000000       0xa4 build/stm32f1xx_hal_tim_ex.o
 .text.HAL_TIMEx_PWMN_Start_DMA
                0x00000000      0x100 build/stm32f1xx_hal_tim_ex.o
 .text.HAL_TIMEx_PWMN_Stop_DMA
                0x00000000       0x98 build/stm32f1xx_hal_tim_ex.o
 .text.HAL_TIMEx_OnePulseN_Start
                0x00000000       0x1c build/stm32f1xx_hal_tim_ex.o
 .text.HAL_TIMEx_OnePulseN_Stop
                0x00000000       0x4c build/stm32f1xx_hal_tim_ex.o
 .text.HAL_TIMEx_OnePulseN_Start_IT
                0x00000000       0x30 build/stm32f1xx_hal_tim_ex.o
 .text.HAL_TIMEx_OnePulseN_Stop_IT
                0x00000000       0x60 build/stm32f1xx_hal_tim_ex.o
 .text.HAL_TIMEx_ConfigCommutationEvent
                0x00000000       0x60 build/stm32f1xx_hal_tim_ex.o
 .text.HAL_TIMEx_ConfigCommutationEvent_IT
                0x00000000       0x68 build/stm32f1xx_hal_tim_ex.o
 .text.HAL_TIMEx_ConfigCommutationEvent_DMA
                0x00000000       0x7c build/stm32f1xx_hal_tim_ex.o
 .text.HAL_TIMEx_MasterConfigSynchronization
                0x00000000       0x54 build/stm32f1xx_hal_tim_ex.o
 .text.TIMEx_DMACommutationCplt
                0x00000000       0x10 build/stm32f1xx_hal_tim_ex.o
 .text.HAL_TIMEx_HallSensor_GetState
                0x00000000        0x8 build/stm32f1xx_hal_tim_ex.o
 .text          0x00000000        0x0 build/stm32f1xx_hal_cortex.o
 .data          0x00000000        0x0 build/stm32f1xx_hal_cortex.o
 .bss           0x00000000        0x0 build/stm32f1xx_hal_cortex.o
 .text.HAL_NVIC_SystemReset
                0x00000000       0x24 build/stm32f1xx_hal_cortex.o
 .text.HAL_NVIC_GetPriorityGrouping
                0x00000000       0x10 build/stm32f1xx_hal_cortex.o
 .text.HAL_NVIC_GetPriority
                0x00000000       0x5c build/stm32f1xx_hal_cortex.o
 .text.HAL_NVIC_SetPendingIRQ
                0x00000000       0x1c build/stm32f1xx_hal_cortex.o
 .text.HAL_NVIC_GetPendingIRQ
                0x00000000       0x1c build/stm32f1xx_hal_cortex.o
 .text.HAL_NVIC_ClearPendingIRQ
                0x00000000       0x1c build/stm32f1xx_hal_cortex.o
 .text.HAL_NVIC_GetActive
                0x00000000       0x1c build/stm32f1xx_hal_cortex.o
 .text          0x00000000        0x0 build/stm32f1xx_hal_gpio.o
 .data          0x00000000        0x0 build/stm32f1xx_hal_gpio.o
 .bss           0x00000000        0x0 build/stm32f1xx_hal_gpio.o
 .text.HAL_GPIO_DeInit
                0x00000000       0xf4 build/stm32f1xx_hal_gpio.o
 .text.HAL_GPIO_TogglePin
                0x00000000        0x8 build/stm32f1xx_hal_gpio.o
 .text.HAL_GPIO_LockPin
                0x00000000       0x30 build/stm32f1xx_hal_gpio.o
 .text.HAL_GPIO_EXTI_Callback
                0x00000000        0x4 build/stm32f1xx_hal_gpio.o
 .text.HAL_GPIO_EXTI_IRQHandler
                0x00000000       0x18 build/stm32f1xx_hal_gpio.o
 .text          0x00000000        0x0 build/system_stm32f1xx.o
 .data          0x00000000        0x0 build/system_stm32f1xx.o
 .bss           0x00000000        0x0 build/system_stm32f1xx.o
 .text.SystemCoreClockUpdate
                0x00000000       0x94 build/system_stm32f1xx.o
 .text          0x00000000        0x0 build/stm32f1xx_hal_tim.o
 .data          0x00000000        0x0 build/stm32f1xx_hal_tim.o
 .bss           0x00000000        0x0 build/stm32f1xx_hal_tim.o
 .text.TIM_TI1_ConfigInputStage
                0x00000000       0x24 build/stm32f1xx_hal_tim.o
 .text.TIM_TI2_SetConfig
                0x00000000       0x34 build/stm32f1xx_hal_tim.o
 .text.TIM_TI2_ConfigInputStage
                0x00000000       0x28 build/stm32f1xx_hal_tim.o
 .text.TIM_TI3_SetConfig
                0x00000000       0x34 build/stm32f1xx_hal_tim.o
 .text.TIM_TI4_SetConfig
                0x00000000       0x34 build/stm32f1xx_hal_tim.o
 .text.TIM_ITRx_SetConfig
                0x00000000       0x10 build/stm32f1xx_hal_tim.o
 .text.TIM_ETR_SetConfig
                0x00000000       0x18 build/stm32f1xx_hal_tim.o
 .text.TIM_SlaveTimer_SetConfig
                0x00000000       0x78 build/stm32f1xx_hal_tim.o
 .text.HAL_TIM_Base_MspDeInit
                0x00000000        0x4 build/stm32f1xx_hal_tim.o
 .text.HAL_TIM_Base_DeInit
                0x00000000       0x3c build/stm32f1xx_hal_tim.o
 .text.HAL_TIM_Base_Start_IT
                0x00000000       0x18 build/stm32f1xx_hal_tim.o
 .text.HAL_TIM_Base_Stop_IT
                0x00000000       0x2c build/stm32f1xx_hal_tim.o
 .text.HAL_TIM_Base_Start_DMA
                0x00000000       0x64 build/stm32f1xx_hal_tim.o
 .text.HAL_TIM_Base_Stop_DMA
                0x00000000       0x34 build/stm32f1xx_hal_tim.o
 .text.HAL_TIM_OC_MspInit
                0x00000000        0x4 build/stm32f1xx_hal_tim.o
 .text.HAL_TIM_OC_MspDeInit
                0x00000000        0x4 build/stm32f1xx_hal_tim.o
 .text.HAL_TIM_OC_DeInit
                0x00000000       0x3c build/stm32f1xx_hal_tim.o
 .text.HAL_TIM_PWM_MspDeInit
                0x00000000        0x4 build/stm32f1xx_hal_tim.o
 .text.HAL_TIM_PWM_DeInit
                0x00000000       0x3c build/stm32f1xx_hal_tim.o
 .text.HAL_TIM_IC_MspInit
                0x00000000        0x4 build/stm32f1xx_hal_tim.o
 .text.HAL_TIM_IC_MspDeInit
                0x00000000        0x4 build/stm32f1xx_hal_tim.o
 .text.HAL_TIM_IC_DeInit
                0x00000000       0x3c build/stm32f1xx_hal_tim.o
 .text.HAL_TIM_OnePulse_MspInit
                0x00000000        0x4 build/stm32f1xx_hal_tim.o
 .text.HAL_TIM_OnePulse_MspDeInit
                0x00000000        0x4 build/stm32f1xx_hal_tim.o
 .text.HAL_TIM_OnePulse_DeInit
                0x00000000       0x3c build/stm32f1xx_hal_tim.o
 .text.HAL_TIM_Encoder_MspInit
                0x00000000        0x4 build/stm32f1xx_hal_tim.o
 .text.HAL_TIM_Encoder_MspDeInit
                0x00000000        0x4 build/stm32f1xx_hal_tim.o
 .text.HAL_TIM_Encoder_DeInit
                0x00000000       0x3c build/stm32f1xx_hal_tim.o
 .text.HAL_TIM_DMABurst_WriteStart
                0x00000000      0x170 build/stm32f1xx_hal_tim.o
 .text.HAL_TIM_DMABurst_WriteStop
                0x00000000       0x7c build/stm32f1xx_hal_tim.o
 .text.HAL_TIM_DMABurst_ReadStart
                0x00000000      0x170 build/stm32f1xx_hal_tim.o
 .text.HAL_TIM_DMABurst_ReadStop
                0x00000000       0x7c build/stm32f1xx_hal_tim.o
 .text.HAL_TIM_GenerateEvent
                0x00000000       0x28 build/stm32f1xx_hal_tim.o
 .text.HAL_TIM_ConfigOCrefClear
                0x00000000       0xdc build/stm32f1xx_hal_tim.o
 .text.HAL_TIM_ConfigClockSource
                0x00000000      0x114 build/stm32f1xx_hal_tim.o
 .text.HAL_TIM_ConfigTI1Input
                0x00000000       0x10 build/stm32f1xx_hal_tim.o
 .text.HAL_TIM_SlaveConfigSynchronization
                0x00000000       0x40 build/stm32f1xx_hal_tim.o
 .text.HAL_TIM_SlaveConfigSynchronization_IT
                0x00000000       0x40 build/stm32f1xx_hal_tim.o
 .text.HAL_TIM_ReadCapturedValue
                0x00000000       0x4c build/stm32f1xx_hal_tim.o
 .text.TIM_DMAPeriodElapsedCplt
                0x00000000       0x10 build/stm32f1xx_hal_tim.o
 .text.TIM_DMACaptureCplt
                0x00000000       0x44 build/stm32f1xx_hal_tim.o
 .text.TIM_DMADelayPulseCplt
                0x00000000       0x44 build/stm32f1xx_hal_tim.o
 .text.TIM_DMATriggerCplt
                0x00000000       0x10 build/stm32f1xx_hal_tim.o
 .text.HAL_TIM_ErrorCallback
                0x00000000        0x4 build/stm32f1xx_hal_tim.o
 .text.TIM_DMAError
                0x00000000       0x10 build/stm32f1xx_hal_tim.o
 .text.HAL_TIM_Base_GetState
                0x00000000        0x8 build/stm32f1xx_hal_tim.o
 .text.HAL_TIM_OC_GetState
                0x00000000        0x8 build/stm32f1xx_hal_tim.o
 .text.HAL_TIM_PWM_GetState
                0x00000000        0x8 build/stm32f1xx_hal_tim.o
 .text.HAL_TIM_IC_GetState
                0x00000000        0x8 build/stm32f1xx_hal_tim.o
 .text.HAL_TIM_OnePulse_GetState
                0x00000000        0x8 build/stm32f1xx_hal_tim.o
 .text.HAL_TIM_Encoder_GetState
                0x00000000        0x8 build/stm32f1xx_hal_tim.o
 .text.HAL_TIM_OC_Init
                0x00000000       0x38 build/stm32f1xx_hal_tim.o
 .text.HAL_TIM_IC_Init
                0x00000000       0x38 build/stm32f1xx_hal_tim.o
 .text.HAL_TIM_OnePulse_Init
                0x00000000       0x4c build/stm32f1xx_hal_tim.o
 .text.HAL_TIM_Encoder_Init
                0x00000000       0x9c build/stm32f1xx_hal_tim.o
 .text.HAL_TIM_OC_ConfigChannel
                0x00000000       0x60 build/stm32f1xx_hal_tim.o
 .text.TIM_TI1_SetConfig
                0x00000000       0x84 build/stm32f1xx_hal_tim.o
 .text.HAL_TIM_IC_ConfigChannel
                0x00000000       0xc0 build/stm32f1xx_hal_tim.o
 .text.HAL_TIM_OnePulse_ConfigChannel
                0x00000000       0xf4 build/stm32f1xx_hal_tim.o
 .text.HAL_TIM_OC_Start
                0x00000000       0x44 build/stm32f1xx_hal_tim.o
 .text.HAL_TIM_OC_Stop
                0x00000000       0x6c build/stm32f1xx_hal_tim.o
 .text.HAL_TIM_OC_Start_IT
                0x00000000       0x88 build/stm32f1xx_hal_tim.o
 .text.HAL_TIM_OC_Stop_IT
                0x00000000       0xb0 build/stm32f1xx_hal_tim.o
 .text.HAL_TIM_OC_Start_DMA
                0x00000000      0x11c build/stm32f1xx_hal_tim.o
 .text.HAL_TIM_OC_Stop_DMA
                0x00000000       0xb4 build/stm32f1xx_hal_tim.o
 .text.HAL_TIM_PWM_Stop
                0x00000000       0x70 build/stm32f1xx_hal_tim.o
 .text.HAL_TIM_PWM_Stop_IT
                0x00000000       0xb0 build/stm32f1xx_hal_tim.o
 .text.HAL_TIM_PWM_Start_DMA
                0x00000000      0x11c build/stm32f1xx_hal_tim.o
 .text.HAL_TIM_PWM_Stop_DMA
                0x00000000       0xb4 build/stm32f1xx_hal_tim.o
 .text.HAL_TIM_IC_Start
                0x00000000       0x1c build/stm32f1xx_hal_tim.o
 .text.HAL_TIM_IC_Stop
                0x00000000       0x30 build/stm32f1xx_hal_tim.o
 .text.HAL_TIM_IC_Start_IT
                0x00000000       0x60 build/stm32f1xx_hal_tim.o
 .text.HAL_TIM_IC_Stop_IT
                0x00000000       0x74 build/stm32f1xx_hal_tim.o
 .text.HAL_TIM_IC_Start_DMA
                0x00000000       0xec build/stm32f1xx_hal_tim.o
 .text.HAL_TIM_IC_Stop_DMA
                0x00000000       0x78 build/stm32f1xx_hal_tim.o
 .text.HAL_TIM_OnePulse_Start
                0x00000000       0x44 build/stm32f1xx_hal_tim.o
 .text.HAL_TIM_OnePulse_Stop
                0x00000000       0x78 build/stm32f1xx_hal_tim.o
 .text.HAL_TIM_OnePulse_Start_IT
                0x00000000       0x58 build/stm32f1xx_hal_tim.o
 .text.HAL_TIM_OnePulse_Stop_IT
                0x00000000       0x8c build/stm32f1xx_hal_tim.o
 .text.HAL_TIM_Encoder_Start
                0x00000000       0x48 build/stm32f1xx_hal_tim.o
 .text.HAL_TIM_Encoder_Stop
                0x00000000       0x5c build/stm32f1xx_hal_tim.o
 .text.HAL_TIM_Encoder_Start_IT
                0x00000000       0x70 build/stm32f1xx_hal_tim.o
 .text.HAL_TIM_Encoder_Stop_IT
                0x00000000       0x88 build/stm32f1xx_hal_tim.o
 .text.HAL_TIM_Encoder_Start_DMA
                0x00000000      0x140 build/stm32f1xx_hal_tim.o
 .text.HAL_TIM_Encoder_Stop_DMA
                0x00000000       0x88 build/stm32f1xx_hal_tim.o
 .text          0x00000000        0x0 build/stm32f1xx_hal_adc_ex.o
 .data          0x00000000        0x0 build/stm32f1xx_hal_adc_ex.o
 .bss           0x00000000        0x0 build/stm32f1xx_hal_adc_ex.o
 .text.HAL_ADCEx_Calibration_Start
                0x00000000       0xf0 build/stm32f1xx_hal_adc_ex.o
 .text.HAL_ADCEx_InjectedStart
                0x00000000       0xc0 build/stm32f1xx_hal_adc_ex.o
 .text.HAL_ADCEx_InjectedStop
                0x00000000       0x58 build/stm32f1xx_hal_adc_ex.o
 .text.HAL_ADCEx_InjectedPollForConversion
                0x00000000      0x16c build/stm32f1xx_hal_adc_ex.o
 .text.HAL_ADCEx_InjectedStart_IT
                0x00000000       0xc8 build/stm32f1xx_hal_adc_ex.o
 .text.HAL_ADCEx_InjectedStop_IT
                0x00000000       0x60 build/stm32f1xx_hal_adc_ex.o
 .text.HAL_ADCEx_MultiModeStart_DMA
                0x00000000       0xf4 build/stm32f1xx_hal_adc_ex.o
 .text.HAL_ADCEx_MultiModeStop_DMA
                0x00000000       0x8c build/stm32f1xx_hal_adc_ex.o
 .text.HAL_ADCEx_InjectedGetValue
                0x00000000       0x28 build/stm32f1xx_hal_adc_ex.o
 .text.HAL_ADCEx_MultiModeGetValue
                0x00000000       0x20 build/stm32f1xx_hal_adc_ex.o
 .text.HAL_ADCEx_InjectedConvCpltCallback
                0x00000000        0x4 build/stm32f1xx_hal_adc_ex.o
 .text.HAL_ADCEx_InjectedConfigChannel
                0x00000000      0x2a4 build/stm32f1xx_hal_adc_ex.o
 .text.HAL_ADCEx_MultiModeConfigChannel
                0x00000000       0x68 build/stm32f1xx_hal_adc_ex.o
 .debug_info    0x00000000      0xd27 build/stm32f1xx_hal_adc_ex.o
 .debug_abbrev  0x00000000      0x293 build/stm32f1xx_hal_adc_ex.o
 .debug_loc     0x00000000      0xb1b build/stm32f1xx_hal_adc_ex.o
 .debug_aranges
                0x00000000       0x80 build/stm32f1xx_hal_adc_ex.o
 .debug_ranges  0x00000000       0x70 build/stm32f1xx_hal_adc_ex.o
 .debug_line    0x00000000      0x643 build/stm32f1xx_hal_adc_ex.o
 .debug_str     0x00000000      0x85c build/stm32f1xx_hal_adc_ex.o
 .comment       0x00000000       0x6f build/stm32f1xx_hal_adc_ex.o
 .debug_frame   0x00000000      0x1e8 build/stm32f1xx_hal_adc_ex.o
 .ARM.attributes
                0x00000000       0x33 build/stm32f1xx_hal_adc_ex.o
 .text          0x00000000        0x0 build/stm32f1xx_it.o
 .data          0x00000000        0x0 build/stm32f1xx_it.o
 .bss           0x00000000        0x0 build/stm32f1xx_it.o
 .text          0x00000000        0x0 build/stm32f1xx_hal_rcc.o
 .data          0x00000000        0x0 build/stm32f1xx_hal_rcc.o
 .bss           0x00000000        0x0 build/stm32f1xx_hal_rcc.o
 .text.HAL_RCC_DeInit
                0x00000000       0x58 build/stm32f1xx_hal_rcc.o
 .text.HAL_RCC_MCOConfig
                0x00000000       0x4c build/stm32f1xx_hal_rcc.o
 .text.HAL_RCC_EnableCSS
                0x00000000       0x1c build/stm32f1xx_hal_rcc.o
 .text.HAL_RCC_DisableCSS
                0x00000000       0x1c build/stm32f1xx_hal_rcc.o
 .text.HAL_RCC_GetPCLK2Freq
                0x00000000       0x30 build/stm32f1xx_hal_rcc.o
 .text.HAL_RCC_GetOscConfig
                0x00000000       0xc4 build/stm32f1xx_hal_rcc.o
 .text.HAL_RCC_GetClockConfig
                0x00000000       0x3c build/stm32f1xx_hal_rcc.o
 .text.HAL_RCC_CSSCallback
                0x00000000        0x4 build/stm32f1xx_hal_rcc.o
 .text.HAL_RCC_NMI_IRQHandler
                0x00000000       0x20 build/stm32f1xx_hal_rcc.o
 .text          0x00000000        0x0 build/stm32f1xx_hal_dma.o
 .data          0x00000000        0x0 build/stm32f1xx_hal_dma.o
 .bss           0x00000000        0x0 build/stm32f1xx_hal_dma.o
 .text.HAL_DMA_DeInit
                0x00000000      0x3a0 build/stm32f1xx_hal_dma.o
 .text.HAL_DMA_Start
                0x00000000       0x3c build/stm32f1xx_hal_dma.o
 .text.HAL_DMA_Abort
                0x00000000       0x50 build/stm32f1xx_hal_dma.o
 .text.HAL_DMA_PollForTransfer
                0x00000000      0x640 build/stm32f1xx_hal_dma.o
 .text.HAL_DMA_GetState
                0x00000000        0x8 build/stm32f1xx_hal_dma.o
 .text.HAL_DMA_GetError
                0x00000000        0x4 build/stm32f1xx_hal_dma.o
 .text          0x00000000        0x0 build/stm32f1xx_hal_uart.o
 .data          0x00000000        0x0 build/stm32f1xx_hal_uart.o
 .bss           0x00000000        0x0 build/stm32f1xx_hal_uart.o
 .text.UART_Transmit_IT
                0x00000000       0x6c build/stm32f1xx_hal_uart.o
 .text.UART_SetConfig
                0x00000000      0x1bc build/stm32f1xx_hal_uart.o
 .text.UART_WaitOnFlagUntilTimeout
                0x00000000       0xd4 build/stm32f1xx_hal_uart.o
 .text.HAL_UART_MspInit
                0x00000000        0x4 build/stm32f1xx_hal_uart.o
 .text.HAL_UART_Init
                0x00000000       0x60 build/stm32f1xx_hal_uart.o
 .text.HAL_HalfDuplex_Init
                0x00000000       0x6c build/stm32f1xx_hal_uart.o
 .text.HAL_LIN_Init
                0x00000000       0x78 build/stm32f1xx_hal_uart.o
 .text.HAL_MultiProcessor_Init
                0x00000000       0x80 build/stm32f1xx_hal_uart.o
 .text.HAL_UART_MspDeInit
                0x00000000        0x4 build/stm32f1xx_hal_uart.o
 .text.HAL_UART_DeInit
                0x00000000       0x3c build/stm32f1xx_hal_uart.o
 .text.HAL_UART_Transmit
                0x00000000       0xec build/stm32f1xx_hal_uart.o
 .text.HAL_UART_Receive
                0x00000000       0xf0 build/stm32f1xx_hal_uart.o
 .text.HAL_UART_Transmit_IT
                0x00000000       0x68 build/stm32f1xx_hal_uart.o
 .text.HAL_UART_Receive_IT
                0x00000000       0x80 build/stm32f1xx_hal_uart.o
 .text.HAL_UART_Transmit_DMA
                0x00000000       0xa0 build/stm32f1xx_hal_uart.o
 .text.HAL_UART_Receive_DMA
                0x00000000       0x98 build/stm32f1xx_hal_uart.o
 .text.HAL_UART_DMAPause
                0x00000000       0x68 build/stm32f1xx_hal_uart.o
 .text.HAL_UART_DMAResume
                0x00000000       0x80 build/stm32f1xx_hal_uart.o
 .text.HAL_UART_DMAStop
                0x00000000       0x28 build/stm32f1xx_hal_uart.o
 .text.HAL_UART_TxCpltCallback
                0x00000000        0x4 build/stm32f1xx_hal_uart.o
 .text.UART_DMATransmitCplt
                0x00000000       0x3c build/stm32f1xx_hal_uart.o
 .text.UART_EndTransmit_IT
                0x00000000       0x2c build/stm32f1xx_hal_uart.o
 .text.HAL_UART_TxHalfCpltCallback
                0x00000000        0x4 build/stm32f1xx_hal_uart.o
 .text.UART_DMATxHalfCplt
                0x00000000        0xc build/stm32f1xx_hal_uart.o
 .text.HAL_UART_RxCpltCallback
                0x00000000        0x4 build/stm32f1xx_hal_uart.o
 .text.UART_DMAReceiveCplt
                0x00000000       0x3c build/stm32f1xx_hal_uart.o
 .text.UART_Receive_IT
                0x00000000       0xb4 build/stm32f1xx_hal_uart.o
 .text.HAL_UART_RxHalfCpltCallback
                0x00000000        0x4 build/stm32f1xx_hal_uart.o
 .text.UART_DMARxHalfCplt
                0x00000000        0xc build/stm32f1xx_hal_uart.o
 .text.HAL_UART_ErrorCallback
                0x00000000        0x4 build/stm32f1xx_hal_uart.o
 .text.UART_DMAError
                0x00000000       0x20 build/stm32f1xx_hal_uart.o
 .text.HAL_UART_IRQHandler
                0x00000000       0xc4 build/stm32f1xx_hal_uart.o
 .text.HAL_LIN_SendBreak
                0x00000000       0x30 build/stm32f1xx_hal_uart.o
 .text.HAL_MultiProcessor_EnterMuteMode
                0x00000000       0x30 build/stm32f1xx_hal_uart.o
 .text.HAL_MultiProcessor_ExitMuteMode
                0x00000000       0x30 build/stm32f1xx_hal_uart.o
 .text.HAL_HalfDuplex_EnableTransmitter
                0x00000000       0x34 build/stm32f1xx_hal_uart.o
 .text.HAL_HalfDuplex_EnableReceiver
                0x00000000       0x34 build/stm32f1xx_hal_uart.o
 .text.HAL_UART_GetState
                0x00000000        0x8 build/stm32f1xx_hal_uart.o
 .text.HAL_UART_GetError
                0x00000000        0x4 build/stm32f1xx_hal_uart.o
 .debug_info    0x00000000     0x1210 build/stm32f1xx_hal_uart.o
 .debug_abbrev  0x00000000      0x278 build/stm32f1xx_hal_uart.o
 .debug_loc     0x00000000     0x1322 build/stm32f1xx_hal_uart.o
 .debug_aranges
                0x00000000      0x150 build/stm32f1xx_hal_uart.o
 .debug_ranges  0x00000000      0x140 build/stm32f1xx_hal_uart.o
 .debug_line    0x00000000      0x862 build/stm32f1xx_hal_uart.o
 .debug_str     0x00000000      0x988 build/stm32f1xx_hal_uart.o
 .comment       0x00000000       0x6f build/stm32f1xx_hal_uart.o
 .debug_frame   0x00000000      0x3d8 build/stm32f1xx_hal_uart.o
 .ARM.attributes
                0x00000000       0x33 build/stm32f1xx_hal_uart.o
 .text          0x00000000        0x0 build/stm32f1xx_hal.o
 .data          0x00000000        0x0 build/stm32f1xx_hal.o
 .bss           0x00000000        0x0 build/stm32f1xx_hal.o
 .text.HAL_MspInit
                0x00000000        0x4 build/stm32f1xx_hal.o
 .text.HAL_MspDeInit
                0x00000000        0x4 build/stm32f1xx_hal.o
 .text.HAL_DeInit
                0x00000000       0x20 build/stm32f1xx_hal.o
 .text.HAL_SuspendTick
                0x00000000       0x10 build/stm32f1xx_hal.o
 .text.HAL_ResumeTick
                0x00000000       0x10 build/stm32f1xx_hal.o
 .text.HAL_GetHalVersion
                0x00000000        0x8 build/stm32f1xx_hal.o
 .text.HAL_GetREVID
                0x00000000       0x1c build/stm32f1xx_hal.o
 .text.HAL_GetDEVID
                0x00000000       0x10 build/stm32f1xx_hal.o
 .text.HAL_DBGMCU_EnableDBGSleepMode
                0x00000000       0x10 build/stm32f1xx_hal.o
 .text.HAL_DBGMCU_DisableDBGSleepMode
                0x00000000       0x10 build/stm32f1xx_hal.o
 .text.HAL_DBGMCU_EnableDBGStopMode
                0x00000000       0x10 build/stm32f1xx_hal.o
 .text.HAL_DBGMCU_DisableDBGStopMode
                0x00000000       0x10 build/stm32f1xx_hal.o
 .text.HAL_DBGMCU_EnableDBGStandbyMode
                0x00000000       0x10 build/stm32f1xx_hal.o
 .text.HAL_DBGMCU_DisableDBGStandbyMode
                0x00000000       0x10 build/stm32f1xx_hal.o
 .text          0x00000000        0x0 build/stm32f1xx_hal_pwr.o
 .data          0x00000000        0x0 build/stm32f1xx_hal_pwr.o
 .bss           0x00000000        0x0 build/stm32f1xx_hal_pwr.o
 .text.PWR_OverloadWfe
                0x00000000        0x8 build/stm32f1xx_hal_pwr.o
 .text.HAL_PWR_DeInit
                0x00000000       0x18 build/stm32f1xx_hal_pwr.o
 .text.HAL_PWR_EnableBkUpAccess
                0x00000000       0x1c build/stm32f1xx_hal_pwr.o
 .text.HAL_PWR_DisableBkUpAccess
                0x00000000       0x1c build/stm32f1xx_hal_pwr.o
 .text.HAL_PWR_ConfigPVD
                0x00000000       0x84 build/stm32f1xx_hal_pwr.o
 .text.HAL_PWR_EnablePVD
                0x00000000       0x1c build/stm32f1xx_hal_pwr.o
 .text.HAL_PWR_DisablePVD
                0x00000000       0x1c build/stm32f1xx_hal_pwr.o
 .text.HAL_PWR_EnableWakeUpPin
                0x00000000       0x18 build/stm32f1xx_hal_pwr.o
 .text.HAL_PWR_DisableWakeUpPin
                0x00000000       0x18 build/stm32f1xx_hal_pwr.o
 .text.HAL_PWR_EnterSLEEPMode
                0x00000000       0x20 build/stm32f1xx_hal_pwr.o
 .text.HAL_PWR_EnterSTOPMode
                0x00000000       0x48 build/stm32f1xx_hal_pwr.o
 .text.HAL_PWR_EnterSTANDBYMode
                0x00000000       0x20 build/stm32f1xx_hal_pwr.o
 .text.HAL_PWR_EnableSleepOnExit
                0x00000000       0x10 build/stm32f1xx_hal_pwr.o
 .text.HAL_PWR_DisableSleepOnExit
                0x00000000       0x10 build/stm32f1xx_hal_pwr.o
 .text.HAL_PWR_EnableSEVOnPend
                0x00000000       0x10 build/stm32f1xx_hal_pwr.o
 .text.HAL_PWR_DisableSEVOnPend
                0x00000000       0x10 build/stm32f1xx_hal_pwr.o
 .text.HAL_PWR_PVDCallback
                0x00000000        0x4 build/stm32f1xx_hal_pwr.o
 .text.HAL_PWR_PVD_IRQHandler
                0x00000000       0x20 build/stm32f1xx_hal_pwr.o
 .debug_info    0x00000000      0x855 build/stm32f1xx_hal_pwr.o
 .debug_abbrev  0x00000000      0x227 build/stm32f1xx_hal_pwr.o
 .debug_loc     0x00000000      0x13e build/stm32f1xx_hal_pwr.o
 .debug_aranges
                0x00000000       0xa8 build/stm32f1xx_hal_pwr.o
 .debug_ranges  0x00000000       0x98 build/stm32f1xx_hal_pwr.o
 .debug_line    0x00000000      0x36a build/stm32f1xx_hal_pwr.o
 .debug_str     0x00000000      0x4b7 build/stm32f1xx_hal_pwr.o
 .comment       0x00000000       0x6f build/stm32f1xx_hal_pwr.o
 .debug_frame   0x00000000      0x148 build/stm32f1xx_hal_pwr.o
 .ARM.attributes
                0x00000000       0x33 build/stm32f1xx_hal_pwr.o
 .text          0x00000000        0x0 build/stm32f1xx_hal_i2c.o
 .data          0x00000000        0x0 build/stm32f1xx_hal_i2c.o
 .bss           0x00000000        0x0 build/stm32f1xx_hal_i2c.o
 .text.I2C_RequestMemoryWrite
                0x00000000       0xc4 build/stm32f1xx_hal_i2c.o
 .text.I2C_RequestMemoryRead
                0x00000000      0x12c build/stm32f1xx_hal_i2c.o
 .text.I2C_WaitOnSTOPFlagUntilTimeout
                0x00000000       0x4c build/stm32f1xx_hal_i2c.o
 .text.HAL_I2C_MspInit
                0x00000000        0x4 build/stm32f1xx_hal_i2c.o
 .text.HAL_I2C_MspDeInit
                0x00000000        0x4 build/stm32f1xx_hal_i2c.o
 .text.HAL_I2C_DeInit
                0x00000000       0x30 build/stm32f1xx_hal_i2c.o
 .text.HAL_I2C_Slave_Transmit
                0x00000000      0x154 build/stm32f1xx_hal_i2c.o
 .text.HAL_I2C_Slave_Receive
                0x00000000      0x13c build/stm32f1xx_hal_i2c.o
 .text.HAL_I2C_Master_Transmit_IT
                0x00000000       0xbc build/stm32f1xx_hal_i2c.o
 .text.HAL_I2C_Master_Receive_IT
                0x00000000      0x118 build/stm32f1xx_hal_i2c.o
 .text.HAL_I2C_Slave_Transmit_IT
                0x00000000       0x8c build/stm32f1xx_hal_i2c.o
 .text.HAL_I2C_Slave_Receive_IT
                0x00000000       0x8c build/stm32f1xx_hal_i2c.o
 .text.HAL_I2C_Master_Transmit_DMA
                0x00000000       0xe0 build/stm32f1xx_hal_i2c.o
 .text.HAL_I2C_Master_Receive_DMA
                0x00000000       0xf8 build/stm32f1xx_hal_i2c.o
 .text.HAL_I2C_Slave_Transmit_DMA
                0x00000000      0x110 build/stm32f1xx_hal_i2c.o
 .text.HAL_I2C_Slave_Receive_DMA
                0x00000000       0xd8 build/stm32f1xx_hal_i2c.o
 .text.HAL_I2C_Mem_Write
                0x00000000      0x13c build/stm32f1xx_hal_i2c.o
 .text.HAL_I2C_Mem_Read
                0x00000000      0x258 build/stm32f1xx_hal_i2c.o
 .text.HAL_I2C_Mem_Write_IT
                0x00000000       0xc4 build/stm32f1xx_hal_i2c.o
 .text.HAL_I2C_Mem_Read_IT
                0x00000000      0x128 build/stm32f1xx_hal_i2c.o
 .text.HAL_I2C_Mem_Write_DMA
                0x00000000       0xe4 build/stm32f1xx_hal_i2c.o
 .text.HAL_I2C_Mem_Read_DMA
                0x00000000      0x10c build/stm32f1xx_hal_i2c.o
 .text.HAL_I2C_IsDeviceReady
                0x00000000      0x160 build/stm32f1xx_hal_i2c.o
 .text.HAL_I2C_MasterTxCpltCallback
                0x00000000        0x4 build/stm32f1xx_hal_i2c.o
 .text.HAL_I2C_MasterRxCpltCallback
                0x00000000        0x4 build/stm32f1xx_hal_i2c.o
 .text.HAL_I2C_ErrorCallback
                0x00000000        0x4 build/stm32f1xx_hal_i2c.o
 .text.I2C_DMAError
                0x00000000       0x2c build/stm32f1xx_hal_i2c.o
 .text.I2C_DMAMasterTransmitCplt
                0x00000000       0x54 build/stm32f1xx_hal_i2c.o
 .text.I2C_DMAMasterReceiveCplt
                0x00000000       0x4c build/stm32f1xx_hal_i2c.o
 .text.I2C_DMASlaveTransmitCplt
                0x00000000       0x5c build/stm32f1xx_hal_i2c.o
 .text.I2C_DMASlaveReceiveCplt
                0x00000000       0x74 build/stm32f1xx_hal_i2c.o
 .text.I2C_DMAMemTransmitCplt
                0x00000000       0x54 build/stm32f1xx_hal_i2c.o
 .text.I2C_DMAMemReceiveCplt
                0x00000000       0x4c build/stm32f1xx_hal_i2c.o
 .text.HAL_I2C_GetState
                0x00000000        0x8 build/stm32f1xx_hal_i2c.o
 .text.HAL_I2C_GetError
                0x00000000        0x4 build/stm32f1xx_hal_i2c.o
 .text          0x00000000        0x0 build/stm32f1xx_hal_rcc_ex.o
 .data          0x00000000        0x0 build/stm32f1xx_hal_rcc_ex.o
 .bss           0x00000000        0x0 build/stm32f1xx_hal_rcc_ex.o
 .text.HAL_RCCEx_GetPeriphCLKConfig
                0x00000000       0x34 build/stm32f1xx_hal_rcc_ex.o
 .text.HAL_RCCEx_GetPeriphCLKFreq
                0x00000000      0x150 build/stm32f1xx_hal_rcc_ex.o
 .rodata        0x00000000       0x12 build/stm32f1xx_hal_rcc_ex.o
 .text          0x00000000        0x0 build/stm32f1xx_hal_gpio_ex.o
 .data          0x00000000        0x0 build/stm32f1xx_hal_gpio_ex.o
 .bss           0x00000000        0x0 build/stm32f1xx_hal_gpio_ex.o
 .text.HAL_GPIOEx_ConfigEventout
                0x00000000       0x14 build/stm32f1xx_hal_gpio_ex.o
 .text.HAL_GPIOEx_EnableEventout
                0x00000000       0x10 build/stm32f1xx_hal_gpio_ex.o
 .text.HAL_GPIOEx_DisableEventout
                0x00000000       0x10 build/stm32f1xx_hal_gpio_ex.o
 .debug_info    0x00000000      0x19f build/stm32f1xx_hal_gpio_ex.o
 .debug_abbrev  0x00000000       0xdc build/stm32f1xx_hal_gpio_ex.o
 .debug_loc     0x00000000       0x21 build/stm32f1xx_hal_gpio_ex.o
 .debug_aranges
                0x00000000       0x30 build/stm32f1xx_hal_gpio_ex.o
 .debug_ranges  0x00000000       0x20 build/stm32f1xx_hal_gpio_ex.o
 .debug_line    0x00000000      0x19e build/stm32f1xx_hal_gpio_ex.o
 .debug_str     0x00000000      0x261 build/stm32f1xx_hal_gpio_ex.o
 .comment       0x00000000       0x6f build/stm32f1xx_hal_gpio_ex.o
 .debug_frame   0x00000000       0x40 build/stm32f1xx_hal_gpio_ex.o
 .ARM.attributes
                0x00000000       0x33 build/stm32f1xx_hal_gpio_ex.o
 .text          0x00000000        0x0 build/stm32f1xx_hal_flash_ex.o
 .data          0x00000000        0x0 build/stm32f1xx_hal_flash_ex.o
 .bss           0x00000000        0x0 build/stm32f1xx_hal_flash_ex.o
 .text.FLASH_MassErase
                0x00000000       0x24 build/stm32f1xx_hal_flash_ex.o
 .text.FLASH_OB_GetWRP
                0x00000000        0xc build/stm32f1xx_hal_flash_ex.o
 .text.FLASH_OB_GetRDP
                0x00000000       0x18 build/stm32f1xx_hal_flash_ex.o
 .text.FLASH_OB_RDP_LevelConfig
                0x00000000       0x6c build/stm32f1xx_hal_flash_ex.o
 .text.FLASH_OB_UserConfig
                0x00000000       0x4c build/stm32f1xx_hal_flash_ex.o
 .text.FLASH_OB_ProgramData
                0x00000000       0x44 build/stm32f1xx_hal_flash_ex.o
 .text.FLASH_OB_GetUser
                0x00000000       0x20 build/stm32f1xx_hal_flash_ex.o
 .text.HAL_FLASHEx_OBErase
                0x00000000       0x54 build/stm32f1xx_hal_flash_ex.o
 .text.FLASH_OB_EnableWRP
                0x00000000       0xb8 build/stm32f1xx_hal_flash_ex.o
 .text.FLASH_OB_DisableWRP
                0x00000000       0xc0 build/stm32f1xx_hal_flash_ex.o
 .text.HAL_FLASHEx_OBProgram
                0x00000000       0xa4 build/stm32f1xx_hal_flash_ex.o
 .text.HAL_FLASHEx_OBGetConfig
                0x00000000       0x1c build/stm32f1xx_hal_flash_ex.o
 .text.HAL_FLASHEx_OBGetUserData
                0x00000000       0x44 build/stm32f1xx_hal_flash_ex.o
 .text.FLASH_PageErase
                0x00000000       0x24 build/stm32f1xx_hal_flash_ex.o
 .text.HAL_FLASHEx_Erase
                0x00000000       0xa4 build/stm32f1xx_hal_flash_ex.o
 .text.HAL_FLASHEx_Erase_IT
                0x00000000       0x60 build/stm32f1xx_hal_flash_ex.o
 .debug_info    0x00000000      0xb7e build/stm32f1xx_hal_flash_ex.o
 .debug_abbrev  0x00000000      0x2c4 build/stm32f1xx_hal_flash_ex.o
 .debug_loc     0x00000000      0x86e build/stm32f1xx_hal_flash_ex.o
 .debug_aranges
                0x00000000       0x98 build/stm32f1xx_hal_flash_ex.o
 .debug_ranges  0x00000000       0x88 build/stm32f1xx_hal_flash_ex.o
 .debug_line    0x00000000      0x44d build/stm32f1xx_hal_flash_ex.o
 .debug_str     0x00000000      0x65d build/stm32f1xx_hal_flash_ex.o
 .comment       0x00000000       0x6f build/stm32f1xx_hal_flash_ex.o
 .debug_frame   0x00000000      0x1c8 build/stm32f1xx_hal_flash_ex.o
 .ARM.attributes
                0x00000000       0x33 build/stm32f1xx_hal_flash_ex.o
 .text          0x00000000        0x0 build/stm32f1xx_hal_flash.o
 .data          0x00000000        0x0 build/stm32f1xx_hal_flash.o
 .bss           0x00000000        0x0 build/stm32f1xx_hal_flash.o
 .text.FLASH_Program_HalfWord
                0x00000000       0x1c build/stm32f1xx_hal_flash.o
 .text.FLASH_SetErrorCode
                0x00000000       0x58 build/stm32f1xx_hal_flash.o
 .text.HAL_FLASH_Program_IT
                0x00000000       0x64 build/stm32f1xx_hal_flash.o
 .text.HAL_FLASH_EndOfOperationCallback
                0x00000000        0x4 build/stm32f1xx_hal_flash.o
 .text.HAL_FLASH_OperationErrorCallback
                0x00000000        0x4 build/stm32f1xx_hal_flash.o
 .text.HAL_FLASH_IRQHandler
                0x00000000      0x15c build/stm32f1xx_hal_flash.o
 .text.HAL_FLASH_Unlock
                0x00000000       0x28 build/stm32f1xx_hal_flash.o
 .text.HAL_FLASH_Lock
                0x00000000       0x14 build/stm32f1xx_hal_flash.o
 .text.HAL_FLASH_OB_Unlock
                0x00000000       0x28 build/stm32f1xx_hal_flash.o
 .text.HAL_FLASH_OB_Lock
                0x00000000       0x14 build/stm32f1xx_hal_flash.o
 .text.HAL_FLASH_OB_Launch
                0x00000000        0xc build/stm32f1xx_hal_flash.o
 .text.HAL_FLASH_GetError
                0x00000000        0xc build/stm32f1xx_hal_flash.o
 .text.FLASH_WaitForLastOperation
                0x00000000       0x70 build/stm32f1xx_hal_flash.o
 .text.HAL_FLASH_Program
                0x00000000       0xa0 build/stm32f1xx_hal_flash.o
 .debug_info    0x00000000      0x68c build/stm32f1xx_hal_flash.o
 .debug_abbrev  0x00000000      0x226 build/stm32f1xx_hal_flash.o
 .debug_loc     0x00000000      0x365 build/stm32f1xx_hal_flash.o
 .debug_aranges
                0x00000000       0x88 build/stm32f1xx_hal_flash.o
 .debug_ranges  0x00000000       0x78 build/stm32f1xx_hal_flash.o
 .debug_line    0x00000000      0x3dd build/stm32f1xx_hal_flash.o
 .debug_str     0x00000000      0x533 build/stm32f1xx_hal_flash.o
 .comment       0x00000000       0x6f build/stm32f1xx_hal_flash.o
 .debug_frame   0x00000000      0x150 build/stm32f1xx_hal_flash.o
 .ARM.attributes
                0x00000000       0x33 build/stm32f1xx_hal_flash.o
 COMMON         0x00000000       0x20 build/stm32f1xx_hal_flash.o
 .text          0x00000000        0x0 build/stm32f1xx_hal_iwdg.o
 .data          0x00000000        0x0 build/stm32f1xx_hal_iwdg.o
 .bss           0x00000000        0x0 build/stm32f1xx_hal_iwdg.o
 .text.HAL_IWDG_GetState
                0x00000000        0x4 build/stm32f1xx_hal_iwdg.o
 .text          0x00000000        0x0 build/ADC_L.o
 .data          0x00000000        0x0 build/ADC_L.o
 .bss           0x00000000        0x0 build/ADC_L.o
 .text.GET_MOTOR_L_AMP
                0x00000000       0x44 build/ADC_L.o
 .text.ADC_L_ResetFlag
                0x00000000       0x1c build/ADC_L.o
 .text.ADC_MOTOR_LEFT_IS_CONV
                0x00000000       0x1c build/ADC_L.o
 .text          0x00000000        0x0 build/ADC_R.o
 .data          0x00000000        0x0 build/ADC_R.o
 .bss           0x00000000        0x0 build/ADC_R.o
 .text.GET_BATTERY_VOLT
                0x00000000       0x3c build/ADC_R.o
 .text.GET_MOTOR_R_AMP
                0x00000000       0x44 build/ADC_R.o
 .text.ADC_MOTOR_RIGHT_IS_CONV
                0x00000000       0x1c build/ADC_R.o
 .text.ADC_PA2  0x00000000       0x1c build/ADC_R.o
 .text.ADC_PA3  0x00000000       0x1c build/ADC_R.o
 .text.ADC_R_ResetFlag
                0x00000000       0x1c build/ADC_R.o
 .text          0x00000000        0x0 build/pid.o
 .data          0x00000000        0x0 build/pid.o
 .bss           0x00000000        0x0 build/pid.o
 .text.PID_init
                0x00000000       0xb8 build/pid.o
 .text.PID_set_L_costant
                0x00000000       0x10 build/pid.o
 .text.PID_set_R_costant
                0x00000000       0x10 build/pid.o
 .text.pid_update_f
                0x00000000       0x8c build/pid.o
 .text.pid_update_I32
                0x00000000       0x9c build/pid.o
 .text.PID_L_task
                0x00000000       0x34 build/pid.o
 .text.PID_R_task
                0x00000000       0x3c build/pid.o
 .text          0x00000000        0x0 build/motor_L.o
 .data          0x00000000        0x0 build/motor_L.o
 .bss           0x00000000        0x0 build/motor_L.o
 .text.mL_PWM_Set_Ch1
                0x00000000       0x24 build/motor_L.o
 .text.mL_PWM_Set_Ch2
                0x00000000       0x24 build/motor_L.o
 .text.mL_PWM_Set_Ch3
                0x00000000       0x24 build/motor_L.o
 .text          0x00000000        0x0 build/motor_R.o
 .data          0x00000000        0x0 build/motor_R.o
 .bss           0x00000000        0x0 build/motor_R.o
 .text.mR_PWM_Set_Ch1
                0x00000000       0x24 build/motor_R.o
 .text.mR_PWM_Set_Ch2
                0x00000000       0x24 build/motor_R.o
 .text.mR_PWM_Set_Ch3
                0x00000000       0x24 build/motor_R.o
 .text          0x00000000        0x0 build/uart.o
 .data          0x00000000        0x0 build/uart.o
 .bss           0x00000000        0x0 build/uart.o
 .text.MX_USART3_UART_Init
                0x00000000       0x80 build/uart.o
 .text.Console_Log
                0x00000000       0x18 build/uart.o
 .text.Uart3_TX
                0x00000000       0x24 build/uart.o
 .text.Uart3_IS_TX_free
                0x00000000        0xc build/uart.o
 .text.Uart3_IS_RX_available
                0x00000000        0xc build/uart.o
 .text.HAL_UART_RxCpltCallback
                0x00000000       0x1c build/uart.o
 .text.HAL_UART_TxCpltCallback
                0x00000000       0x1c build/uart.o
 .text          0x00000000        0x0 build/varie.o
 .data          0x00000000        0x0 build/varie.o
 .bss           0x00000000        0x0 build/varie.o
 .text.Buzzer_OneBeep
                0x00000000       0x38 build/varie.o
 .text.Buzzer_OneShortBeep
                0x00000000       0x38 build/varie.o
 .text.IS_Charge
                0x00000000       0x14 build/varie.o
 .text.DebugPin_init
                0x00000000       0x60 build/varie.o
 .text.DebugPin4_ON
                0x00000000        0xc build/varie.o
 .text.DebugPin4_OFF
                0x00000000       0x10 build/varie.o
 .text.DebugPin5_ON
                0x00000000        0xc build/varie.o
 .text.DebugPin5_OFF
                0x00000000       0x10 build/varie.o
 .text          0x00000000        0x0 build/telemetry.o
 .data          0x00000000        0x0 build/telemetry.o
 .bss           0x00000000        0x0 build/telemetry.o
 .text.Telemetry_init
                0x00000000        0x8 build/telemetry.o
 .text.getMotorL
                0x00000000       0x1c build/telemetry.o
 .text.getMotorR
                0x00000000       0x1c build/telemetry.o
 .debug_info    0x00000000      0x29a build/telemetry.o
 .debug_abbrev  0x00000000       0xee build/telemetry.o
 .debug_loc     0x00000000       0x60 build/telemetry.o
 .debug_aranges
                0x00000000       0x30 build/telemetry.o
 .debug_ranges  0x00000000       0x20 build/telemetry.o
 .debug_line    0x00000000      0x156 build/telemetry.o
 .debug_str     0x00000000      0x2e7 build/telemetry.o
 .comment       0x00000000       0x6f build/telemetry.o
 .debug_frame   0x00000000       0x64 build/telemetry.o
 .ARM.attributes
                0x00000000       0x33 build/telemetry.o
 COMMON         0x00000000       0x28 build/telemetry.o
 .text          0x00000000        0x0 build/i2c.o
 .data          0x00000000        0x0 build/i2c.o
 .bss           0x00000000        0x0 build/i2c.o
 .text.WiiNunchuck_INIT
                0x00000000       0x40 build/i2c.o
 .text.nunchuk_decode_byte
                0x00000000        0xc build/i2c.o
 .text.WiiNunchuck_TASK
                0x00000000      0x1f8 build/i2c.o
 .text          0x00000000        0x0 build/delay.o
 .data          0x00000000        0x0 build/delay.o
 .bss           0x00000000        0x0 build/delay.o
 .text._init_ms
                0x00000000       0x5c build/delay.o
 .text.Delay_ms
                0x00000000       0x20 build/delay.o
 .text          0x00000000        0x0 build/application.o
 .data          0x00000000        0x0 build/application.o
 .bss           0x00000000        0x0 build/application.o
 .text.TASK_BATTERY_LOW_VOLTAGE
                0x00000000       0x28 build/application.o
 .text.normalize_y
                0x00000000       0x48 build/application.o
 .text.normalize_x
                0x00000000       0x48 build/application.o
 .text.scale_y  0x00000000       0x14 build/application.o
 .text.scale_x  0x00000000       0x14 build/application.o
 .text.accelleration_XY_Reset
                0x00000000       0x10 build/application.o
 .text.accellerationY
                0x00000000       0x7c build/application.o
 .text.accellerationX
                0x00000000       0x7c build/application.o
 .text.accellerationYHARD
                0x00000000       0x7c build/application.o
 .text.accellerationXHARD
                0x00000000       0x7c build/application.o
 .text.WAIT_CHARGE_FINISH
                0x00000000       0x84 build/application.o
 .text.Current_Motor_TASK
                0x00000000      0x14c build/application.o
 .text.go_motor
                0x00000000      0x25c build/application.o
 .text.applcation_TASK
                0x00000000      0x508 build/application.o
 .rodata.Battery_power
                0x00000000      0x6e4 build/application.o
 .text          0x00000000        0x0 build/main.o
 .data          0x00000000        0x0 build/main.o
 .bss           0x00000000        0x0 build/main.o
 .text.saveConfig
                0x00000000       0x18 build/main.o
 .bss.pointer   0x00000000        0x1 build/main.o
 .bss.rc_data   0x00000000        0xa build/main.o
 .bss.saveValue
                0x00000000        0x2 build/main.o
 .bss.VarValue  0x00000000        0x2 build/main.o
 .data.VirtAddVarTab
                0x00000000        0x6 build/main.o
 .bss.speed     0x00000000        0x2 build/main.o
 .bss.VarDataTab
                0x00000000        0x6 build/main.o
 .bss.data_ready
                0x00000000        0x1 build/main.o
 .text          0x00000000        0x0 build/stm32f1xx_hal_msp.o
 .data          0x00000000        0x0 build/stm32f1xx_hal_msp.o
 .bss           0x00000000        0x0 build/stm32f1xx_hal_msp.o
 .text.HAL_ADC_MspDeInit
                0x00000000       0x34 build/stm32f1xx_hal_msp.o
 .text.HAL_I2C_MspDeInit
                0x00000000       0x44 build/stm32f1xx_hal_msp.o
 .text.HAL_TIM_PWM_MspDeInit
                0x00000000       0x40 build/stm32f1xx_hal_msp.o
 .text.HAL_UART_MspInit
                0x00000000       0xe8 build/stm32f1xx_hal_msp.o
 .text.HAL_UART_MspDeInit
                0x00000000       0x3c build/stm32f1xx_hal_msp.o
 .text          0x00000000        0x0 build/hd44780.o
 .data          0x00000000        0x0 build/hd44780.o
 .bss           0x00000000        0x0 build/hd44780.o
 .text.LCD_DisplayOFF
                0x00000000       0x1c build/hd44780.o
 .text.LCD_CursorON
                0x00000000       0x24 build/hd44780.o
 .text.LCD_CursorOFF
                0x00000000       0x1c build/hd44780.o
 .text.LCD_ShiftCursor
                0x00000000       0x30 build/hd44780.o
 .text.LCD_ShiftDisplay
                0x00000000       0x30 build/hd44780.o
 .text.LCD_CustomChar
                0x00000000       0x28 build/hd44780.o
 .text          0x00000000        0x0 build/eeprom.o
 .data          0x00000000        0x0 build/eeprom.o
 .bss           0x00000000        0x0 build/eeprom.o
 .text.EE_VerifyPageFullyErased
                0x00000000       0x24 build/eeprom.o
 .text.EE_FindValidPage
                0x00000000       0x58 build/eeprom.o
 .text.EE_VerifyPageFullWriteVariable
                0x00000000       0x60 build/eeprom.o
 .text.EE_Format
                0x00000000       0x60 build/eeprom.o
 .text.EE_ReadVariable
                0x00000000       0x48 build/eeprom.o
 .text.EE_Init  0x00000000      0x25c build/eeprom.o
 .text.EE_PageTransfer
                0x00000000       0xbc build/eeprom.o
 .text.EE_WriteVariable
                0x00000000       0x18 build/eeprom.o
 .bss.DataVar   0x00000000        0x2 build/eeprom.o
 .debug_info    0x00000000      0x913 build/eeprom.o
 .debug_abbrev  0x00000000      0x1c9 build/eeprom.o
 .debug_loc     0x00000000      0xbc4 build/eeprom.o
 .debug_aranges
                0x00000000       0x58 build/eeprom.o
 .debug_ranges  0x00000000       0x48 build/eeprom.o
 .debug_line    0x00000000      0x30b build/eeprom.o
 .debug_str     0x00000000      0x3e6 build/eeprom.o
 .comment       0x00000000       0x6f build/eeprom.o
 .debug_frame   0x00000000      0x100 build/eeprom.o
 .ARM.attributes
                0x00000000       0x33 build/eeprom.o
 .text          0x00000000        0x0 build/pcf8574.o
 .data          0x00000000        0x0 build/pcf8574.o
 .bss           0x00000000        0x0 build/pcf8574.o
 .text.PCF8574_DeInit
                0x00000000        0xc build/pcf8574.o
 .text          0x00000000       0x14 build/startup_stm32f103xe.o
 .data          0x00000000        0x0 build/startup_stm32f103xe.o
 .bss           0x00000000        0x0 build/startup_stm32f103xe.o
 .text          0x00000000        0x0 /home/niklas/gcc-arm-none-eabi-5_4-2016q3/bin/../lib/gcc/arm-none-eabi/5.4.1/../../../../arm-none-eabi/lib/armv7-m/libc_nano.a(lib_a-exit.o)
 .data          0x00000000        0x0 /home/niklas/gcc-arm-none-eabi-5_4-2016q3/bin/../lib/gcc/arm-none-eabi/5.4.1/../../../../arm-none-eabi/lib/armv7-m/libc_nano.a(lib_a-exit.o)
 .bss           0x00000000        0x0 /home/niklas/gcc-arm-none-eabi-5_4-2016q3/bin/../lib/gcc/arm-none-eabi/5.4.1/../../../../arm-none-eabi/lib/armv7-m/libc_nano.a(lib_a-exit.o)
 .text.exit     0x00000000       0x28 /home/niklas/gcc-arm-none-eabi-5_4-2016q3/bin/../lib/gcc/arm-none-eabi/5.4.1/../../../../arm-none-eabi/lib/armv7-m/libc_nano.a(lib_a-exit.o)
 .debug_frame   0x00000000       0x28 /home/niklas/gcc-arm-none-eabi-5_4-2016q3/bin/../lib/gcc/arm-none-eabi/5.4.1/../../../../arm-none-eabi/lib/armv7-m/libc_nano.a(lib_a-exit.o)
 .ARM.attributes
                0x00000000       0x2d /home/niklas/gcc-arm-none-eabi-5_4-2016q3/bin/../lib/gcc/arm-none-eabi/5.4.1/../../../../arm-none-eabi/lib/armv7-m/libc_nano.a(lib_a-exit.o)
 .text          0x00000000        0x0 /home/niklas/gcc-arm-none-eabi-5_4-2016q3/bin/../lib/gcc/arm-none-eabi/5.4.1/../../../../arm-none-eabi/lib/armv7-m/libc_nano.a(lib_a-impure.o)
 .data          0x00000000        0x0 /home/niklas/gcc-arm-none-eabi-5_4-2016q3/bin/../lib/gcc/arm-none-eabi/5.4.1/../../../../arm-none-eabi/lib/armv7-m/libc_nano.a(lib_a-impure.o)
 .bss           0x00000000        0x0 /home/niklas/gcc-arm-none-eabi-5_4-2016q3/bin/../lib/gcc/arm-none-eabi/5.4.1/../../../../arm-none-eabi/lib/armv7-m/libc_nano.a(lib_a-impure.o)
 .data.impure_data
                0x00000000       0x60 /home/niklas/gcc-arm-none-eabi-5_4-2016q3/bin/../lib/gcc/arm-none-eabi/5.4.1/../../../../arm-none-eabi/lib/armv7-m/libc_nano.a(lib_a-impure.o)
 .data._impure_ptr
                0x00000000        0x4 /home/niklas/gcc-arm-none-eabi-5_4-2016q3/bin/../lib/gcc/arm-none-eabi/5.4.1/../../../../arm-none-eabi/lib/armv7-m/libc_nano.a(lib_a-impure.o)
 .rodata._global_impure_ptr
                0x00000000        0x4 /home/niklas/gcc-arm-none-eabi-5_4-2016q3/bin/../lib/gcc/arm-none-eabi/5.4.1/../../../../arm-none-eabi/lib/armv7-m/libc_nano.a(lib_a-impure.o)
 .ARM.attributes
                0x00000000       0x2d /home/niklas/gcc-arm-none-eabi-5_4-2016q3/bin/../lib/gcc/arm-none-eabi/5.4.1/../../../../arm-none-eabi/lib/armv7-m/libc_nano.a(lib_a-impure.o)
 .text          0x00000000        0x0 /home/niklas/gcc-arm-none-eabi-5_4-2016q3/bin/../lib/gcc/arm-none-eabi/5.4.1/../../../../arm-none-eabi/lib/armv7-m/libc_nano.a(lib_a-init.o)
 .data          0x00000000        0x0 /home/niklas/gcc-arm-none-eabi-5_4-2016q3/bin/../lib/gcc/arm-none-eabi/5.4.1/../../../../arm-none-eabi/lib/armv7-m/libc_nano.a(lib_a-init.o)
 .bss           0x00000000        0x0 /home/niklas/gcc-arm-none-eabi-5_4-2016q3/bin/../lib/gcc/arm-none-eabi/5.4.1/../../../../arm-none-eabi/lib/armv7-m/libc_nano.a(lib_a-init.o)
 .text          0x00000000        0x0 /home/niklas/gcc-arm-none-eabi-5_4-2016q3/bin/../lib/gcc/arm-none-eabi/5.4.1/../../../../arm-none-eabi/lib/armv7-m/libc_nano.a(lib_a-memset.o)
 .data          0x00000000        0x0 /home/niklas/gcc-arm-none-eabi-5_4-2016q3/bin/../lib/gcc/arm-none-eabi/5.4.1/../../../../arm-none-eabi/lib/armv7-m/libc_nano.a(lib_a-memset.o)
 .bss           0x00000000        0x0 /home/niklas/gcc-arm-none-eabi-5_4-2016q3/bin/../lib/gcc/arm-none-eabi/5.4.1/../../../../arm-none-eabi/lib/armv7-m/libc_nano.a(lib_a-memset.o)
 .text.memset   0x00000000       0x10 /home/niklas/gcc-arm-none-eabi-5_4-2016q3/bin/../lib/gcc/arm-none-eabi/5.4.1/../../../../arm-none-eabi/lib/armv7-m/libc_nano.a(lib_a-memset.o)
 .debug_frame   0x00000000       0x20 /home/niklas/gcc-arm-none-eabi-5_4-2016q3/bin/../lib/gcc/arm-none-eabi/5.4.1/../../../../arm-none-eabi/lib/armv7-m/libc_nano.a(lib_a-memset.o)
 .ARM.attributes
                0x00000000       0x2d /home/niklas/gcc-arm-none-eabi-5_4-2016q3/bin/../lib/gcc/arm-none-eabi/5.4.1/../../../../arm-none-eabi/lib/armv7-m/libc_nano.a(lib_a-memset.o)
 .text          0x00000000       0x10 /home/niklas/gcc-arm-none-eabi-5_4-2016q3/bin/../lib/gcc/arm-none-eabi/5.4.1/../../../../arm-none-eabi/lib/armv7-m/libc_nano.a(lib_a-strlen.o)
 .data          0x00000000        0x0 /home/niklas/gcc-arm-none-eabi-5_4-2016q3/bin/../lib/gcc/arm-none-eabi/5.4.1/../../../../arm-none-eabi/lib/armv7-m/libc_nano.a(lib_a-strlen.o)
 .bss           0x00000000        0x0 /home/niklas/gcc-arm-none-eabi-5_4-2016q3/bin/../lib/gcc/arm-none-eabi/5.4.1/../../../../arm-none-eabi/lib/armv7-m/libc_nano.a(lib_a-strlen.o)
 .ARM.attributes
                0x00000000       0x17 /home/niklas/gcc-arm-none-eabi-5_4-2016q3/bin/../lib/gcc/arm-none-eabi/5.4.1/../../../../arm-none-eabi/lib/armv7-m/libc_nano.a(lib_a-strlen.o)
 .text          0x00000000        0x0 /home/niklas/gcc-arm-none-eabi-5_4-2016q3/bin/../lib/gcc/arm-none-eabi/5.4.1/../../../../arm-none-eabi/lib/armv7-m/libnosys.a(_exit.o)
 .data          0x00000000        0x0 /home/niklas/gcc-arm-none-eabi-5_4-2016q3/bin/../lib/gcc/arm-none-eabi/5.4.1/../../../../arm-none-eabi/lib/armv7-m/libnosys.a(_exit.o)
 .bss           0x00000000        0x0 /home/niklas/gcc-arm-none-eabi-5_4-2016q3/bin/../lib/gcc/arm-none-eabi/5.4.1/../../../../arm-none-eabi/lib/armv7-m/libnosys.a(_exit.o)
 .text._exit    0x00000000        0x4 /home/niklas/gcc-arm-none-eabi-5_4-2016q3/bin/../lib/gcc/arm-none-eabi/5.4.1/../../../../arm-none-eabi/lib/armv7-m/libnosys.a(_exit.o)
 .debug_frame   0x00000000       0x20 /home/niklas/gcc-arm-none-eabi-5_4-2016q3/bin/../lib/gcc/arm-none-eabi/5.4.1/../../../../arm-none-eabi/lib/armv7-m/libnosys.a(_exit.o)
 .ARM.attributes
                0x00000000       0x2d /home/niklas/gcc-arm-none-eabi-5_4-2016q3/bin/../lib/gcc/arm-none-eabi/5.4.1/../../../../arm-none-eabi/lib/armv7-m/libnosys.a(_exit.o)
 .data          0x00000000        0x0 /home/niklas/gcc-arm-none-eabi-5_4-2016q3/bin/../lib/gcc/arm-none-eabi/5.4.1/armv7-m/libgcc.a(_arm_addsubdf3.o)
 .bss           0x00000000        0x0 /home/niklas/gcc-arm-none-eabi-5_4-2016q3/bin/../lib/gcc/arm-none-eabi/5.4.1/armv7-m/libgcc.a(_arm_addsubdf3.o)
 .data          0x00000000        0x0 /home/niklas/gcc-arm-none-eabi-5_4-2016q3/bin/../lib/gcc/arm-none-eabi/5.4.1/armv7-m/libgcc.a(_arm_muldivdf3.o)
 .bss           0x00000000        0x0 /home/niklas/gcc-arm-none-eabi-5_4-2016q3/bin/../lib/gcc/arm-none-eabi/5.4.1/armv7-m/libgcc.a(_arm_muldivdf3.o)
 .data          0x00000000        0x0 /home/niklas/gcc-arm-none-eabi-5_4-2016q3/bin/../lib/gcc/arm-none-eabi/5.4.1/armv7-m/libgcc.a(_arm_cmpdf2.o)
 .bss           0x00000000        0x0 /home/niklas/gcc-arm-none-eabi-5_4-2016q3/bin/../lib/gcc/arm-none-eabi/5.4.1/armv7-m/libgcc.a(_arm_cmpdf2.o)
 .data          0x00000000        0x0 /home/niklas/gcc-arm-none-eabi-5_4-2016q3/bin/../lib/gcc/arm-none-eabi/5.4.1/armv7-m/libgcc.a(_arm_fixdfsi.o)
 .bss           0x00000000        0x0 /home/niklas/gcc-arm-none-eabi-5_4-2016q3/bin/../lib/gcc/arm-none-eabi/5.4.1/armv7-m/libgcc.a(_arm_fixdfsi.o)
 .data          0x00000000        0x0 /home/niklas/gcc-arm-none-eabi-5_4-2016q3/bin/../lib/gcc/arm-none-eabi/5.4.1/armv7-m/libgcc.a(_arm_fixunsdfsi.o)
 .bss           0x00000000        0x0 /home/niklas/gcc-arm-none-eabi-5_4-2016q3/bin/../lib/gcc/arm-none-eabi/5.4.1/armv7-m/libgcc.a(_arm_fixunsdfsi.o)
 .data          0x00000000        0x0 /home/niklas/gcc-arm-none-eabi-5_4-2016q3/bin/../lib/gcc/arm-none-eabi/5.4.1/armv7-m/libgcc.a(_arm_truncdfsf2.o)
 .bss           0x00000000        0x0 /home/niklas/gcc-arm-none-eabi-5_4-2016q3/bin/../lib/gcc/arm-none-eabi/5.4.1/armv7-m/libgcc.a(_arm_truncdfsf2.o)
 .data          0x00000000        0x0 /home/niklas/gcc-arm-none-eabi-5_4-2016q3/bin/../lib/gcc/arm-none-eabi/5.4.1/armv7-m/libgcc.a(_arm_addsubsf3.o)
 .bss           0x00000000        0x0 /home/niklas/gcc-arm-none-eabi-5_4-2016q3/bin/../lib/gcc/arm-none-eabi/5.4.1/armv7-m/libgcc.a(_arm_addsubsf3.o)
 .data          0x00000000        0x0 /home/niklas/gcc-arm-none-eabi-5_4-2016q3/bin/../lib/gcc/arm-none-eabi/5.4.1/armv7-m/libgcc.a(_arm_muldivsf3.o)
 .bss           0x00000000        0x0 /home/niklas/gcc-arm-none-eabi-5_4-2016q3/bin/../lib/gcc/arm-none-eabi/5.4.1/armv7-m/libgcc.a(_arm_muldivsf3.o)
 .data          0x00000000        0x0 /home/niklas/gcc-arm-none-eabi-5_4-2016q3/bin/../lib/gcc/arm-none-eabi/5.4.1/armv7-m/libgcc.a(_arm_cmpsf2.o)
 .bss           0x00000000        0x0 /home/niklas/gcc-arm-none-eabi-5_4-2016q3/bin/../lib/gcc/arm-none-eabi/5.4.1/armv7-m/libgcc.a(_arm_cmpsf2.o)
 .data          0x00000000        0x0 /home/niklas/gcc-arm-none-eabi-5_4-2016q3/bin/../lib/gcc/arm-none-eabi/5.4.1/armv7-m/libgcc.a(_arm_fixsfsi.o)
 .bss           0x00000000        0x0 /home/niklas/gcc-arm-none-eabi-5_4-2016q3/bin/../lib/gcc/arm-none-eabi/5.4.1/armv7-m/libgcc.a(_arm_fixsfsi.o)
 .text          0x00000000        0x0 /home/niklas/gcc-arm-none-eabi-5_4-2016q3/bin/../lib/gcc/arm-none-eabi/5.4.1/armv7-m/crtend.o
 .data          0x00000000        0x0 /home/niklas/gcc-arm-none-eabi-5_4-2016q3/bin/../lib/gcc/arm-none-eabi/5.4.1/armv7-m/crtend.o
 .bss           0x00000000        0x0 /home/niklas/gcc-arm-none-eabi-5_4-2016q3/bin/../lib/gcc/arm-none-eabi/5.4.1/armv7-m/crtend.o
 .eh_frame      0x00000000        0x4 /home/niklas/gcc-arm-none-eabi-5_4-2016q3/bin/../lib/gcc/arm-none-eabi/5.4.1/armv7-m/crtend.o
 .jcr           0x00000000        0x4 /home/niklas/gcc-arm-none-eabi-5_4-2016q3/bin/../lib/gcc/arm-none-eabi/5.4.1/armv7-m/crtend.o
 .ARM.attributes
                0x00000000       0x2d /home/niklas/gcc-arm-none-eabi-5_4-2016q3/bin/../lib/gcc/arm-none-eabi/5.4.1/armv7-m/crtend.o
 .text          0x00000000        0x0 /home/niklas/gcc-arm-none-eabi-5_4-2016q3/bin/../lib/gcc/arm-none-eabi/5.4.1/armv7-m/crtn.o
 .data          0x00000000        0x0 /home/niklas/gcc-arm-none-eabi-5_4-2016q3/bin/../lib/gcc/arm-none-eabi/5.4.1/armv7-m/crtn.o
 .bss           0x00000000        0x0 /home/niklas/gcc-arm-none-eabi-5_4-2016q3/bin/../lib/gcc/arm-none-eabi/5.4.1/armv7-m/crtn.o

Memory Configuration

Name             Origin             Length             Attributes
RAM              0x20000000         0x0000c000         xrw
FLASH            0x08000000         0x00040000         xr
*default*        0x00000000         0xffffffff

Linker script and memory map

LOAD /home/niklas/gcc-arm-none-eabi-5_4-2016q3/bin/../lib/gcc/arm-none-eabi/5.4.1/armv7-m/crti.o
LOAD /home/niklas/gcc-arm-none-eabi-5_4-2016q3/bin/../lib/gcc/arm-none-eabi/5.4.1/armv7-m/crtbegin.o
LOAD /home/niklas/gcc-arm-none-eabi-5_4-2016q3/bin/../lib/gcc/arm-none-eabi/5.4.1/../../../../arm-none-eabi/lib/armv7-m/crt0.o
LOAD build/stm32f1xx_hal_adc.o
LOAD build/stm32f1xx_hal_tim_ex.o
LOAD build/stm32f1xx_hal_cortex.o
LOAD build/stm32f1xx_hal_gpio.o
LOAD build/system_stm32f1xx.o
LOAD build/stm32f1xx_hal_tim.o
LOAD build/stm32f1xx_hal_adc_ex.o
LOAD build/stm32f1xx_it.o
LOAD build/stm32f1xx_hal_rcc.o
LOAD build/stm32f1xx_hal_dma.o
LOAD build/stm32f1xx_hal_uart.o
LOAD build/stm32f1xx_hal.o
LOAD build/stm32f1xx_hal_pwr.o
LOAD build/stm32f1xx_hal_i2c.o
LOAD build/stm32f1xx_hal_rcc_ex.o
LOAD build/stm32f1xx_hal_gpio_ex.o
LOAD build/stm32f1xx_hal_flash_ex.o
LOAD build/stm32f1xx_hal_flash.o
LOAD build/stm32f1xx_hal_iwdg.o
LOAD build/ADC_L.o
LOAD build/ADC_R.o
LOAD build/pid.o
LOAD build/motor_L.o
LOAD build/motor_R.o
LOAD build/uart.o
LOAD build/varie.o
LOAD build/telemetry.o
LOAD build/i2c.o
LOAD build/delay.o
LOAD build/application.o
LOAD build/main.o
LOAD build/stm32f1xx_hal_msp.o
LOAD build/hd44780.o
LOAD build/eeprom.o
LOAD build/pcf8574.o
LOAD build/startup_stm32f103xe.o
LOAD /home/niklas/gcc-arm-none-eabi-5_4-2016q3/bin/../lib/gcc/arm-none-eabi/5.4.1/../../../../arm-none-eabi/lib/armv7-m/libc_nano.a
LOAD /home/niklas/gcc-arm-none-eabi-5_4-2016q3/bin/../lib/gcc/arm-none-eabi/5.4.1/../../../../arm-none-eabi/lib/armv7-m/libm.a
LOAD /home/niklas/gcc-arm-none-eabi-5_4-2016q3/bin/../lib/gcc/arm-none-eabi/5.4.1/../../../../arm-none-eabi/lib/armv7-m/libnosys.a
START GROUP
LOAD /home/niklas/gcc-arm-none-eabi-5_4-2016q3/bin/../lib/gcc/arm-none-eabi/5.4.1/armv7-m/libgcc.a
LOAD /home/niklas/gcc-arm-none-eabi-5_4-2016q3/bin/../lib/gcc/arm-none-eabi/5.4.1/../../../../arm-none-eabi/lib/armv7-m/libc_nano.a
END GROUP
START GROUP
LOAD /home/niklas/gcc-arm-none-eabi-5_4-2016q3/bin/../lib/gcc/arm-none-eabi/5.4.1/armv7-m/libgcc.a
LOAD /home/niklas/gcc-arm-none-eabi-5_4-2016q3/bin/../lib/gcc/arm-none-eabi/5.4.1/../../../../arm-none-eabi/lib/armv7-m/libc_nano.a
END GROUP
LOAD /home/niklas/gcc-arm-none-eabi-5_4-2016q3/bin/../lib/gcc/arm-none-eabi/5.4.1/armv7-m/crtend.o
LOAD /home/niklas/gcc-arm-none-eabi-5_4-2016q3/bin/../lib/gcc/arm-none-eabi/5.4.1/armv7-m/crtn.o
                0x2000c000                _estack = 0x2000c000
                0x00000200                _Min_Heap_Size = 0x200
                0x00000400                _Min_Stack_Size = 0x400

.isr_vector     0x08000000      0x1e4
                0x08000000                . = ALIGN (0x4)
 *(.isr_vector)
 .isr_vector    0x08000000      0x1e4 build/startup_stm32f103xe.o
                0x08000000                g_pfnVectors
                0x080001e4                . = ALIGN (0x4)

.text           0x080001e8     0x6bd8
                0x080001e8                . = ALIGN (0x4)
 *(.text)
 .text          0x080001e8       0x5c /home/niklas/gcc-arm-none-eabi-5_4-2016q3/bin/../lib/gcc/arm-none-eabi/5.4.1/armv7-m/crtbegin.o
 .text          0x08000244      0x370 /home/niklas/gcc-arm-none-eabi-5_4-2016q3/bin/../lib/gcc/arm-none-eabi/5.4.1/armv7-m/libgcc.a(_arm_addsubdf3.o)
                0x08000244                __aeabi_drsub
                0x0800024c                __aeabi_dsub
                0x0800024c                __subdf3
                0x08000250                __adddf3
                0x08000250                __aeabi_dadd
                0x080004c8                __aeabi_ui2d
                0x080004c8                __floatunsidf
                0x080004e8                __floatsidf
                0x080004e8                __aeabi_i2d
                0x0800050c                __extendsfdf2
                0x0800050c                __aeabi_f2d
                0x08000548                __aeabi_ul2d
                0x08000548                __floatundidf
                0x08000558                __floatdidf
                0x08000558                __aeabi_l2d
 .text          0x080005b4      0x424 /home/niklas/gcc-arm-none-eabi-5_4-2016q3/bin/../lib/gcc/arm-none-eabi/5.4.1/armv7-m/libgcc.a(_arm_muldivdf3.o)
                0x080005b4                __aeabi_dmul
                0x080005b4                __muldf3
                0x08000808                __aeabi_ddiv
                0x08000808                __divdf3
 .text          0x080009d8      0x110 /home/niklas/gcc-arm-none-eabi-5_4-2016q3/bin/../lib/gcc/arm-none-eabi/5.4.1/armv7-m/libgcc.a(_arm_cmpdf2.o)
                0x080009d8                __gtdf2
                0x080009d8                __gedf2
                0x080009e0                __ltdf2
                0x080009e0                __ledf2
                0x080009e8                __cmpdf2
                0x080009e8                __eqdf2
                0x080009e8                __nedf2
                0x08000a64                __aeabi_cdrcmple
                0x08000a74                __aeabi_cdcmple
                0x08000a74                __aeabi_cdcmpeq
                0x08000a84                __aeabi_dcmpeq
                0x08000a98                __aeabi_dcmplt
                0x08000aac                __aeabi_dcmple
                0x08000ac0                __aeabi_dcmpge
                0x08000ad4                __aeabi_dcmpgt
 .text          0x08000ae8       0x50 /home/niklas/gcc-arm-none-eabi-5_4-2016q3/bin/../lib/gcc/arm-none-eabi/5.4.1/armv7-m/libgcc.a(_arm_fixdfsi.o)
                0x08000ae8                __fixdfsi
                0x08000ae8                __aeabi_d2iz
 .text          0x08000b38       0x40 /home/niklas/gcc-arm-none-eabi-5_4-2016q3/bin/../lib/gcc/arm-none-eabi/5.4.1/armv7-m/libgcc.a(_arm_fixunsdfsi.o)
                0x08000b38                __fixunsdfsi
                0x08000b38                __aeabi_d2uiz
 .text          0x08000b78       0xa0 /home/niklas/gcc-arm-none-eabi-5_4-2016q3/bin/../lib/gcc/arm-none-eabi/5.4.1/armv7-m/libgcc.a(_arm_truncdfsf2.o)
                0x08000b78                __aeabi_d2f
                0x08000b78                __truncdfsf2
 .text          0x08000c18      0x21c /home/niklas/gcc-arm-none-eabi-5_4-2016q3/bin/../lib/gcc/arm-none-eabi/5.4.1/armv7-m/libgcc.a(_arm_addsubsf3.o)
                0x08000c18                __aeabi_frsub
                0x08000c20                __subsf3
                0x08000c20                __aeabi_fsub
                0x08000c24                __aeabi_fadd
                0x08000c24                __addsf3
                0x08000d84                __aeabi_ui2f
                0x08000d84                __floatunsisf
                0x08000d8c                __aeabi_i2f
                0x08000d8c                __floatsisf
                0x08000da8                __floatundisf
                0x08000da8                __aeabi_ul2f
                0x08000db8                __floatdisf
                0x08000db8                __aeabi_l2f
 .text          0x08000e34      0x2a0 /home/niklas/gcc-arm-none-eabi-5_4-2016q3/bin/../lib/gcc/arm-none-eabi/5.4.1/armv7-m/libgcc.a(_arm_muldivsf3.o)
                0x08000e34                __mulsf3
                0x08000e34                __aeabi_fmul
                0x08000f9c                __divsf3
                0x08000f9c                __aeabi_fdiv
 .text          0x080010d4       0xec /home/niklas/gcc-arm-none-eabi-5_4-2016q3/bin/../lib/gcc/arm-none-eabi/5.4.1/armv7-m/libgcc.a(_arm_cmpsf2.o)
                0x080010d4                __gtsf2
                0x080010d4                __gesf2
                0x080010dc                __lesf2
                0x080010dc                __ltsf2
                0x080010e4                __nesf2
                0x080010e4                __eqsf2
                0x080010e4                __cmpsf2
                0x08001144                __aeabi_cfrcmple
                0x0800114c                __aeabi_cfcmple
                0x0800114c                __aeabi_cfcmpeq
                0x0800115c                __aeabi_fcmpeq
                0x08001170                __aeabi_fcmplt
                0x08001184                __aeabi_fcmple
                0x08001198                __aeabi_fcmpge
                0x080011ac                __aeabi_fcmpgt
 .text          0x080011c0       0x4c /home/niklas/gcc-arm-none-eabi-5_4-2016q3/bin/../lib/gcc/arm-none-eabi/5.4.1/armv7-m/libgcc.a(_arm_fixsfsi.o)
                0x080011c0                __fixsfsi
                0x080011c0                __aeabi_f2iz
 *(.text*)
 .text.ADC_DMAConvCplt
                0x0800120c       0x50 build/stm32f1xx_hal_adc.o
                0x0800120c                ADC_DMAConvCplt
 .text.HAL_ADC_ConvHalfCpltCallback
                0x0800125c        0x4 build/stm32f1xx_hal_adc.o
                0x0800125c                HAL_ADC_ConvHalfCpltCallback
 .text.ADC_DMAHalfConvCplt
                0x08001260        0xc build/stm32f1xx_hal_adc.o
                0x08001260                ADC_DMAHalfConvCplt
 .text.HAL_ADC_ErrorCallback
                0x0800126c        0x4 build/stm32f1xx_hal_adc.o
                0x0800126c                HAL_ADC_ErrorCallback
 .text.ADC_DMAError
                0x08001270       0x1c build/stm32f1xx_hal_adc.o
                0x08001270                ADC_DMAError
 .text.HAL_ADC_ConfigChannel
                0x0800128c      0x1b4 build/stm32f1xx_hal_adc.o
                0x0800128c                HAL_ADC_ConfigChannel
 .text.ADC_Enable
                0x08001440       0x80 build/stm32f1xx_hal_adc.o
                0x08001440                ADC_Enable
 .text.HAL_ADC_Start
                0x080014c0       0xf8 build/stm32f1xx_hal_adc.o
                0x080014c0                HAL_ADC_Start
 .text.HAL_ADC_Start_DMA
                0x080015b8      0x144 build/stm32f1xx_hal_adc.o
                0x080015b8                HAL_ADC_Start_DMA
 .text.ADC_ConversionStop_Disable
                0x080016fc       0x50 build/stm32f1xx_hal_adc.o
                0x080016fc                ADC_ConversionStop_Disable
 .text.HAL_ADC_Init
                0x0800174c      0x150 build/stm32f1xx_hal_adc.o
                0x0800174c                HAL_ADC_Init
 .text.HAL_TIMEx_ConfigBreakDeadTime
                0x0800189c       0x4c build/stm32f1xx_hal_tim_ex.o
                0x0800189c                HAL_TIMEx_ConfigBreakDeadTime
 .text.HAL_TIMEx_CommutationCallback
                0x080018e8        0x4 build/stm32f1xx_hal_tim_ex.o
                0x080018e8                HAL_TIMEx_CommutationCallback
 .text.HAL_TIMEx_BreakCallback
                0x080018ec        0x4 build/stm32f1xx_hal_tim_ex.o
                0x080018ec                HAL_TIMEx_BreakCallback
 .text.HAL_NVIC_SetPriorityGrouping
                0x080018f0       0x24 build/stm32f1xx_hal_cortex.o
                0x080018f0                HAL_NVIC_SetPriorityGrouping
 .text.HAL_NVIC_SetPriority
                0x08001914       0x64 build/stm32f1xx_hal_cortex.o
                0x08001914                HAL_NVIC_SetPriority
 .text.HAL_NVIC_EnableIRQ
                0x08001978       0x18 build/stm32f1xx_hal_cortex.o
                0x08001978                HAL_NVIC_EnableIRQ
 .text.HAL_NVIC_DisableIRQ
                0x08001990       0x1c build/stm32f1xx_hal_cortex.o
                0x08001990                HAL_NVIC_DisableIRQ
 .text.HAL_SYSTICK_Config
                0x080019ac       0x2c build/stm32f1xx_hal_cortex.o
                0x080019ac                HAL_SYSTICK_Config
 .text.HAL_SYSTICK_CLKSourceConfig
                0x080019d8       0x20 build/stm32f1xx_hal_cortex.o
                0x080019d8                HAL_SYSTICK_CLKSourceConfig
 .text.HAL_SYSTICK_Callback
                0x080019f8        0x4 build/stm32f1xx_hal_cortex.o
                0x080019f8                HAL_SYSTICK_Callback
 .text.HAL_SYSTICK_IRQHandler
                0x080019fc        0x8 build/stm32f1xx_hal_cortex.o
                0x080019fc                HAL_SYSTICK_IRQHandler
 .text.HAL_GPIO_Init
                0x08001a04      0x1ec build/stm32f1xx_hal_gpio.o
                0x08001a04                HAL_GPIO_Init
 .text.HAL_GPIO_ReadPin
                0x08001bf0       0x10 build/stm32f1xx_hal_gpio.o
                0x08001bf0                HAL_GPIO_ReadPin
 .text.HAL_GPIO_WritePin
                0x08001c00        0xc build/stm32f1xx_hal_gpio.o
                0x08001c00                HAL_GPIO_WritePin
 .text.SystemInit
                0x08001c0c       0x4c build/system_stm32f1xx.o
                0x08001c0c                SystemInit
 .text.TIM_OC1_SetConfig
                0x08001c58       0x68 build/stm32f1xx_hal_tim.o
 .text.TIM_OC3_SetConfig
                0x08001cc0       0x70 build/stm32f1xx_hal_tim.o
 .text.TIM_OC4_SetConfig
                0x08001d30       0x50 build/stm32f1xx_hal_tim.o
 .text.HAL_TIM_Base_MspInit
                0x08001d80        0x4 build/stm32f1xx_hal_tim.o
                0x08001d80                HAL_TIM_Base_MspInit
 .text.HAL_TIM_Base_Start
                0x08001d84       0x1c build/stm32f1xx_hal_tim.o
                0x08001d84                HAL_TIM_Base_Start
 .text.HAL_TIM_Base_Stop
                0x08001da0       0x30 build/stm32f1xx_hal_tim.o
                0x08001da0                HAL_TIM_Base_Stop
 .text.HAL_TIM_PWM_MspInit
                0x08001dd0        0x4 build/stm32f1xx_hal_tim.o
                0x08001dd0                HAL_TIM_PWM_MspInit
 .text.HAL_TIM_PeriodElapsedCallback
                0x08001dd4        0x4 build/stm32f1xx_hal_tim.o
                0x08001dd4                HAL_TIM_PeriodElapsedCallback
 .text.HAL_TIM_OC_DelayElapsedCallback
                0x08001dd8        0x4 build/stm32f1xx_hal_tim.o
                0x08001dd8                HAL_TIM_OC_DelayElapsedCallback
 .text.HAL_TIM_IC_CaptureCallback
                0x08001ddc        0x4 build/stm32f1xx_hal_tim.o
                0x08001ddc                HAL_TIM_IC_CaptureCallback
 .text.HAL_TIM_PWM_PulseFinishedCallback
                0x08001de0        0x4 build/stm32f1xx_hal_tim.o
                0x08001de0                HAL_TIM_PWM_PulseFinishedCallback
 .text.HAL_TIM_TriggerCallback
                0x08001de4        0x4 build/stm32f1xx_hal_tim.o
                0x08001de4                HAL_TIM_TriggerCallback
 .text.HAL_TIM_IRQHandler
                0x08001de8      0x174 build/stm32f1xx_hal_tim.o
                0x08001de8                HAL_TIM_IRQHandler
 .text.TIM_Base_SetConfig
                0x08001f5c       0x90 build/stm32f1xx_hal_tim.o
                0x08001f5c                TIM_Base_SetConfig
 .text.HAL_TIM_Base_Init
                0x08001fec       0x38 build/stm32f1xx_hal_tim.o
                0x08001fec                HAL_TIM_Base_Init
 .text.HAL_TIM_PWM_Init
                0x08002024       0x38 build/stm32f1xx_hal_tim.o
                0x08002024                HAL_TIM_PWM_Init
 .text.TIM_OC2_SetConfig
                0x0800205c       0x70 build/stm32f1xx_hal_tim.o
                0x0800205c                TIM_OC2_SetConfig
 .text.HAL_TIM_PWM_ConfigChannel
                0x080020cc       0xdc build/stm32f1xx_hal_tim.o
                0x080020cc                HAL_TIM_PWM_ConfigChannel
 .text.TIM_CCxChannelCmd
                0x080021a8       0x1c build/stm32f1xx_hal_tim.o
                0x080021a8                TIM_CCxChannelCmd
 .text.HAL_TIM_PWM_Start
                0x080021c4       0x44 build/stm32f1xx_hal_tim.o
                0x080021c4                HAL_TIM_PWM_Start
 .text.HAL_TIM_PWM_Start_IT
                0x08002208       0x88 build/stm32f1xx_hal_tim.o
                0x08002208                HAL_TIM_PWM_Start_IT
 .text.NMI_Handler
                0x08002290        0x8 build/stm32f1xx_it.o
                0x08002290                NMI_Handler
 .text.TIM2_IRQHandler
                0x08002298       0x14 build/stm32f1xx_it.o
                0x08002298                TIM2_IRQHandler
 .text.HardFault_Handler
                0x080022ac        0xc build/stm32f1xx_it.o
                0x080022ac                HardFault_Handler
 .text.MemManage_Handler
                0x080022b8        0xc build/stm32f1xx_it.o
                0x080022b8                MemManage_Handler
 .text.BusFault_Handler
                0x080022c4        0xc build/stm32f1xx_it.o
                0x080022c4                BusFault_Handler
 .text.UsageFault_Handler
                0x080022d0        0xc build/stm32f1xx_it.o
                0x080022d0                UsageFault_Handler
 .text.SVC_Handler
                0x080022dc        0x8 build/stm32f1xx_it.o
                0x080022dc                SVC_Handler
 .text.DebugMon_Handler
                0x080022e4        0x4 build/stm32f1xx_it.o
                0x080022e4                DebugMon_Handler
 .text.PendSV_Handler
                0x080022e8        0x8 build/stm32f1xx_it.o
                0x080022e8                PendSV_Handler
 .text.SysTick_Handler
                0x080022f0        0xc build/stm32f1xx_it.o
                0x080022f0                SysTick_Handler
 .text.I2C1_EV_IRQHandler
                0x080022fc       0x10 build/stm32f1xx_it.o
                0x080022fc                I2C1_EV_IRQHandler
 .text.I2C1_ER_IRQHandler
                0x0800230c       0x10 build/stm32f1xx_it.o
                0x0800230c                I2C1_ER_IRQHandler
 .text.DMA1_Channel3_IRQHandler
                0x0800231c       0x10 build/stm32f1xx_it.o
                0x0800231c                DMA1_Channel3_IRQHandler
 .text.DMA1_Channel2_IRQHandler
                0x0800232c       0x10 build/stm32f1xx_it.o
                0x0800232c                DMA1_Channel2_IRQHandler
 .text.I2C2_ER_IRQHandler
                0x0800233c       0x10 build/stm32f1xx_it.o
                0x0800233c                I2C2_ER_IRQHandler
 .text.EXTI15_10_IRQHandler
                0x0800234c       0x40 build/stm32f1xx_it.o
                0x0800234c                EXTI15_10_IRQHandler
 .text.EXTI3_IRQHandler
                0x0800238c       0x14 build/stm32f1xx_it.o
                0x0800238c                EXTI3_IRQHandler
 .text.EXTI9_5_IRQHandler
                0x080023a0       0x38 build/stm32f1xx_it.o
                0x080023a0                EXTI9_5_IRQHandler
 .text.TIM1_CC_IRQHandler
                0x080023d8       0x34 build/stm32f1xx_it.o
                0x080023d8                TIM1_CC_IRQHandler
 .text.TIM8_CC_IRQHandler
                0x0800240c       0x34 build/stm32f1xx_it.o
                0x0800240c                TIM8_CC_IRQHandler
 .text.DMA1_Channel1_IRQHandler
                0x08002440       0x10 build/stm32f1xx_it.o
                0x08002440                DMA1_Channel1_IRQHandler
 .text.DMA2_Channel4_5_IRQHandler
                0x08002450       0x10 build/stm32f1xx_it.o
                0x08002450                DMA2_Channel4_5_IRQHandler
 .text.TIM3_IRQHandler
                0x08002460       0x10 build/stm32f1xx_it.o
                0x08002460                TIM3_IRQHandler
 .text.HAL_RCC_OscConfig
                0x08002470      0x5ec build/stm32f1xx_hal_rcc.o
                0x08002470                HAL_RCC_OscConfig
 .text.HAL_RCC_GetSysClockFreq
                0x08002a5c       0x94 build/stm32f1xx_hal_rcc.o
                0x08002a5c                HAL_RCC_GetSysClockFreq
 .text.HAL_RCC_ClockConfig
                0x08002af0      0x1e4 build/stm32f1xx_hal_rcc.o
                0x08002af0                HAL_RCC_ClockConfig
 .text.HAL_RCC_GetHCLKFreq
                0x08002cd4        0xc build/stm32f1xx_hal_rcc.o
                0x08002cd4                HAL_RCC_GetHCLKFreq
 .text.HAL_RCC_GetPCLK1Freq
                0x08002ce0       0x30 build/stm32f1xx_hal_rcc.o
                0x08002ce0                HAL_RCC_GetPCLK1Freq
 .text.DMA_SetConfig
                0x08002d10       0x24 build/stm32f1xx_hal_dma.o
 .text.HAL_DMA_Init
                0x08002d34       0x54 build/stm32f1xx_hal_dma.o
                0x08002d34                HAL_DMA_Init
 .text.HAL_DMA_Start_IT
                0x08002d88       0x58 build/stm32f1xx_hal_dma.o
                0x08002d88                HAL_DMA_Start_IT
 .text.HAL_DMA_IRQHandler
                0x08002de0      0x78c build/stm32f1xx_hal_dma.o
                0x08002de0                HAL_DMA_IRQHandler
 .text.HAL_InitTick
                0x0800356c       0x28 build/stm32f1xx_hal.o
                0x0800356c                HAL_InitTick
 .text.HAL_Init
                0x08003594       0x24 build/stm32f1xx_hal.o
                0x08003594                HAL_Init
 .text.HAL_IncTick
                0x080035b8       0x10 build/stm32f1xx_hal.o
                0x080035b8                HAL_IncTick
 .text.HAL_GetTick
                0x080035c8        0xc build/stm32f1xx_hal.o
                0x080035c8                HAL_GetTick
 .text.HAL_Delay
                0x080035d4       0x1c build/stm32f1xx_hal.o
                0x080035d4                HAL_Delay
 .text.I2C_MasterTransmit_TXE
                0x080035f0       0x2c build/stm32f1xx_hal_i2c.o
 .text.I2C_SlaveTransmit_TXE
                0x0800361c       0x20 build/stm32f1xx_hal_i2c.o
 .text.I2C_SlaveTransmit_BTF
                0x0800363c       0x20 build/stm32f1xx_hal_i2c.o
 .text.I2C_SlaveReceive_RXNE
                0x0800365c       0x20 build/stm32f1xx_hal_i2c.o
 .text.I2C_SlaveReceive_BTF
                0x0800367c       0x20 build/stm32f1xx_hal_i2c.o
 .text.I2C_Slave_ADDR
                0x0800369c       0x14 build/stm32f1xx_hal_i2c.o
 .text.I2C_Configure_Speed
                0x080036b0       0x4c build/stm32f1xx_hal_i2c.o
 .text.I2C_IsAcknowledgeFailed
                0x080036fc       0x2c build/stm32f1xx_hal_i2c.o
 .text.I2C_WaitOnFlagUntilTimeout
                0x08003728       0xcc build/stm32f1xx_hal_i2c.o
 .text.I2C_WaitOnMasterAddressFlagUntilTimeout
                0x080037f4       0x94 build/stm32f1xx_hal_i2c.o
 .text.I2C_MasterRequestWrite
                0x08003888       0x8c build/stm32f1xx_hal_i2c.o
 .text.I2C_MasterRequestRead
                0x08003914       0xe8 build/stm32f1xx_hal_i2c.o
 .text.I2C_WaitOnTXEFlagUntilTimeout
                0x080039fc       0x54 build/stm32f1xx_hal_i2c.o
 .text.I2C_WaitOnBTFFlagUntilTimeout
                0x08003a50       0x54 build/stm32f1xx_hal_i2c.o
 .text.I2C_WaitOnRXNEFlagUntilTimeout
                0x08003aa4       0x64 build/stm32f1xx_hal_i2c.o
 .text.HAL_I2C_Init
                0x08003b08       0xb4 build/stm32f1xx_hal_i2c.o
                0x08003b08                HAL_I2C_Init
 .text.HAL_I2C_Master_Transmit
                0x08003bbc      0x12c build/stm32f1xx_hal_i2c.o
                0x08003bbc                HAL_I2C_Master_Transmit
 .text.HAL_I2C_Master_Receive
                0x08003ce8      0x22c build/stm32f1xx_hal_i2c.o
                0x08003ce8                HAL_I2C_Master_Receive
 .text.HAL_I2C_SlaveTxCpltCallback
                0x08003f14        0x4 build/stm32f1xx_hal_i2c.o
                0x08003f14                HAL_I2C_SlaveTxCpltCallback
 .text.I2C_Slave_AF
                0x08003f18       0x30 build/stm32f1xx_hal_i2c.o
 .text.HAL_I2C_SlaveRxCpltCallback
                0x08003f48        0x4 build/stm32f1xx_hal_i2c.o
                0x08003f48                HAL_I2C_SlaveRxCpltCallback
 .text.I2C_Slave_STOPF
                0x08003f4c       0x3c build/stm32f1xx_hal_i2c.o
 .text.HAL_I2C_MemTxCpltCallback
                0x08003f88        0x4 build/stm32f1xx_hal_i2c.o
                0x08003f88                HAL_I2C_MemTxCpltCallback
 .text.I2C_MasterTransmit_BTF
                0x08003f8c       0x58 build/stm32f1xx_hal_i2c.o
 .text.HAL_I2C_MemRxCpltCallback
                0x08003fe4        0x4 build/stm32f1xx_hal_i2c.o
                0x08003fe4                HAL_I2C_MemRxCpltCallback
 .text.I2C_MasterReceive_RXNE
                0x08003fe8       0x78 build/stm32f1xx_hal_i2c.o
 .text.I2C_MasterReceive_BTF
                0x08004060       0xb0 build/stm32f1xx_hal_i2c.o
 .text.HAL_I2C_EV_IRQHandler
                0x08004110      0x110 build/stm32f1xx_hal_i2c.o
                0x08004110                HAL_I2C_EV_IRQHandler
 .text.HAL_I2C_ER_IRQHandler
                0x08004220       0xe0 build/stm32f1xx_hal_i2c.o
                0x08004220                HAL_I2C_ER_IRQHandler
 .text.HAL_RCCEx_PeriphCLKConfig
                0x08004300      0x138 build/stm32f1xx_hal_rcc_ex.o
                0x08004300                HAL_RCCEx_PeriphCLKConfig
 .text.HAL_IWDG_MspInit
                0x08004438        0x4 build/stm32f1xx_hal_iwdg.o
                0x08004438                HAL_IWDG_MspInit
 .text.HAL_IWDG_Init
                0x0800443c       0x68 build/stm32f1xx_hal_iwdg.o
                0x0800443c                HAL_IWDG_Init
 .text.HAL_IWDG_Start
                0x080044a4       0x2c build/stm32f1xx_hal_iwdg.o
                0x080044a4                HAL_IWDG_Start
 .text.HAL_IWDG_Refresh
                0x080044d0       0x50 build/stm32f1xx_hal_iwdg.o
                0x080044d0                HAL_IWDG_Refresh
 .text.ADC_L_init
                0x08004520       0x8c build/ADC_L.o
                0x08004520                ADC_L_init
 .text.ADC_MOTOR_LEFT
                0x080045ac       0x1c build/ADC_L.o
                0x080045ac                ADC_MOTOR_LEFT
 .text.ADC_L_callback
                0x080045c8        0xc build/ADC_L.o
                0x080045c8                ADC_L_callback
 .text.ADC_R_init
                0x080045d4       0xd0 build/ADC_R.o
                0x080045d4                ADC_R_init
 .text.ADC_MOTOR_RIGHT
                0x080046a4       0x1c build/ADC_R.o
                0x080046a4                ADC_MOTOR_RIGHT
 .text.ADC_BATTERY
                0x080046c0       0x1c build/ADC_R.o
                0x080046c0                ADC_BATTERY
 .text.ADC_R_callback
                0x080046dc        0xc build/ADC_R.o
                0x080046dc                ADC_R_callback
 .text.mL_HallSensor_init
                0x080046e8       0x50 build/motor_L.o
                0x080046e8                mL_HallSensor_init
 .text.mL_Low_CH1_ON
                0x08004738       0x10 build/motor_L.o
                0x08004738                mL_Low_CH1_ON
 .text.mL_Low_CH1_OFF
                0x08004748        0xc build/motor_L.o
                0x08004748                mL_Low_CH1_OFF
 .text.mL_Low_CH2_ON
                0x08004754       0x10 build/motor_L.o
                0x08004754                mL_Low_CH2_ON
 .text.mL_Low_CH2_OFF
                0x08004764        0xc build/motor_L.o
                0x08004764                mL_Low_CH2_OFF
 .text.mL_Low_CH3_ON
                0x08004770       0x10 build/motor_L.o
                0x08004770                mL_Low_CH3_ON
 .text.mL_Low_CH3_OFF
                0x08004780        0xc build/motor_L.o
                0x08004780                mL_Low_CH3_OFF
 .text.mL_AHigh__ON
                0x0800478c       0x14 build/motor_L.o
                0x0800478c                mL_AHigh__ON
 .text.mL_AHigh__OFF
                0x080047a0       0x18 build/motor_L.o
                0x080047a0                mL_AHigh__OFF
 .text.mL_BHigh__ON
                0x080047b8       0x14 build/motor_L.o
                0x080047b8                mL_BHigh__ON
 .text.mL_BHigh__OFF
                0x080047cc       0x18 build/motor_L.o
                0x080047cc                mL_BHigh__OFF
 .text.mL_CHigh__ON
                0x080047e4       0x14 build/motor_L.o
                0x080047e4                mL_CHigh__ON
 .text.mL_CHigh__OFF
                0x080047f8       0x18 build/motor_L.o
                0x080047f8                mL_CHigh__OFF
 .text.mL_PWM_Set_ChALL
                0x08004810       0x28 build/motor_L.o
                0x08004810                mL_PWM_Set_ChALL
 .text.MotorL_stop
                0x08004838       0x54 build/motor_L.o
                0x08004838                MotorL_stop
 .text.MX_TIM8_Init
                0x0800488c      0x1bc build/motor_L.o
                0x0800488c                MX_TIM8_Init
 .text.MotorL_init
                0x08004a48       0x20 build/motor_L.o
                0x08004a48                MotorL_init
 .text.mL_BLDCMotor
                0x08004a68      0x1b4 build/motor_L.o
                0x08004a68                mL_BLDCMotor
 .text.MotorL_start
                0x08004c1c       0x34 build/motor_L.o
                0x08004c1c                MotorL_start
 .text.MotorL_pwm
                0x08004c50       0x94 build/motor_L.o
                0x08004c50                MotorL_pwm
 .text.HALL_L_ISR_Callback
                0x08004ce4       0x10 build/motor_L.o
                0x08004ce4                HALL_L_ISR_Callback
 .text.PWM_L_ISR_Callback
                0x08004cf4       0x74 build/motor_L.o
                0x08004cf4                PWM_L_ISR_Callback
 .text.mR_Low_CH1_ON
                0x08004d68       0x10 build/motor_R.o
                0x08004d68                mR_Low_CH1_ON
 .text.mR_Low_CH1_OFF
                0x08004d78       0x10 build/motor_R.o
                0x08004d78                mR_Low_CH1_OFF
 .text.mR_Low_CH2_ON
                0x08004d88       0x10 build/motor_R.o
                0x08004d88                mR_Low_CH2_ON
 .text.mR_Low_CH2_OFF
                0x08004d98       0x10 build/motor_R.o
                0x08004d98                mR_Low_CH2_OFF
 .text.mR_Low_CH3_ON
                0x08004da8       0x10 build/motor_R.o
                0x08004da8                mR_Low_CH3_ON
 .text.mR_Low_CH3_OFF
                0x08004db8       0x10 build/motor_R.o
                0x08004db8                mR_Low_CH3_OFF
 .text.mR_HallSensor_init
                0x08004dc8       0x54 build/motor_R.o
                0x08004dc8                mR_HallSensor_init
 .text.mR_AHigh__ON
                0x08004e1c       0x14 build/motor_R.o
                0x08004e1c                mR_AHigh__ON
 .text.mR_AHigh__OFF
                0x08004e30       0x18 build/motor_R.o
                0x08004e30                mR_AHigh__OFF
 .text.mR_BHigh__ON
                0x08004e48       0x14 build/motor_R.o
                0x08004e48                mR_BHigh__ON
 .text.mR_BHigh__OFF
                0x08004e5c       0x18 build/motor_R.o
                0x08004e5c                mR_BHigh__OFF
 .text.mR_CHigh__ON
                0x08004e74       0x14 build/motor_R.o
                0x08004e74                mR_CHigh__ON
 .text.mR_CHigh__OFF
                0x08004e88       0x18 build/motor_R.o
                0x08004e88                mR_CHigh__OFF
 .text.mR_PWM_Set_ChALL
                0x08004ea0       0x28 build/motor_R.o
                0x08004ea0                mR_PWM_Set_ChALL
 .text.MotorR_stop
                0x08004ec8       0x5c build/motor_R.o
                0x08004ec8                MotorR_stop
 .text.MX_TIM1_Init
                0x08004f24      0x1cc build/motor_R.o
                0x08004f24                MX_TIM1_Init
 .text.MotorR_init
                0x080050f0       0x20 build/motor_R.o
                0x080050f0                MotorR_init
 .text.mR_BLDCMotor
                0x08005110      0x1cc build/motor_R.o
                0x08005110                mR_BLDCMotor
 .text.MotorR_start
                0x080052dc       0x34 build/motor_R.o
                0x080052dc                MotorR_start
 .text.MotorR_pwm
                0x08005310       0x94 build/motor_R.o
                0x08005310                MotorR_pwm
 .text.HALL_R_ISR_Callback
                0x080053a4       0x10 build/motor_R.o
                0x080053a4                HALL_R_ISR_Callback
 .text.PWM_R_ISR_Callback
                0x080053b4       0x74 build/motor_R.o
                0x080053b4                PWM_R_ISR_Callback
 .text.Led_init
                0x08005428       0x44 build/varie.o
                0x08005428                Led_init
 .text.IS_Charge_init
                0x0800546c       0x3c build/varie.o
                0x0800546c                IS_Charge_init
 .text.Led_Set  0x080054a8       0x14 build/varie.o
                0x080054a8                Led_Set
 .text.Power_Set
                0x080054bc       0x14 build/varie.o
                0x080054bc                Power_Set
 .text.Buzzer_Set
                0x080054d0       0x14 build/varie.o
                0x080054d0                Buzzer_Set
 .text.Buzzer_init
                0x080054e4       0x58 build/varie.o
                0x080054e4                Buzzer_init
 .text.Buzzer_TwoBeep
                0x0800553c       0x4c build/varie.o
                0x0800553c                Buzzer_TwoBeep
 .text.Buzzer_OneLongBeep
                0x08005588       0x38 build/varie.o
                0x08005588                Buzzer_OneLongBeep
 .text.IS_Button
                0x080055c0       0x10 build/varie.o
                0x080055c0                IS_Button
 .text.Timer_init
                0x080055d0       0x3c build/varie.o
                0x080055d0                Timer_init
 .text.Button_init
                0x0800560c       0x4c build/varie.o
                0x0800560c                Button_init
 .text.MX_I2C2_Init
                0x08005658       0xa0 build/i2c.o
                0x08005658                MX_I2C2_Init
 .text.HAL_I2C_MasterTxCpltCallback
                0x080056f8       0x18 build/i2c.o
                0x080056f8                HAL_I2C_MasterTxCpltCallback
 .text.HAL_I2C_MasterRxCpltCallback
                0x08005710       0x18 build/i2c.o
                0x08005710                HAL_I2C_MasterRxCpltCallback
 .text.HAL_I2C_ErrorCallback
                0x08005728        0x4 build/i2c.o
                0x08005728                HAL_I2C_ErrorCallback
 .text._init_us
                0x0800572c       0x5c build/delay.o
                0x0800572c                _init_us
 .text._stop_timer
                0x08005788       0x1c build/delay.o
                0x08005788                _stop_timer
 .text.Delay_us
                0x080057a4       0x20 build/delay.o
                0x080057a4                Delay_us
 .text.GET_BatteryAverage
                0x080057c4        0xc build/application.o
                0x080057c4                GET_BatteryAverage
 .text.applcation_init
                0x080057d0       0x38 build/application.o
                0x080057d0                applcation_init
 .text.get_powerMax
                0x08005808      0x134 build/application.o
                0x08005808                get_powerMax
 *fill*         0x0800593c        0x4 
 .text.Battery_TASK
                0x08005940       0x90 build/application.o
                0x08005940                Battery_TASK
 .text.getMotorCurrentR
                0x080059d0       0x10 build/application.o
                0x080059d0                getMotorCurrentR
 .text.getMotorCurrentL
                0x080059e0       0x10 build/application.o
                0x080059e0                getMotorCurrentL
 .text.PPM_ISR_Callback
                0x080059f0       0x68 build/main.o
                0x080059f0                PPM_ISR_Callback
 .text.HAL_ADC_ConvCpltCallback
                0x08005a58       0x28 build/main.o
                0x08005a58                HAL_ADC_ConvCpltCallback
 .text.Error_Handler
                0x08005a80        0xc build/main.o
                0x08005a80                Error_Handler
 .text.MX_IWDG_Init
                0x08005a8c       0x4c build/main.o
 .text.SystemClock_Config
                0x08005ad8       0x8c build/main.o
                0x08005ad8                SystemClock_Config
 *fill*         0x08005b64        0x4 
 .text.main     0x08005b68      0x93c build/main.o
                0x08005b68                main
 .text.HAL_MspInit
                0x080064a4       0x7c build/stm32f1xx_hal_msp.o
                0x080064a4                HAL_MspInit
 .text.HAL_ADC_MspInit
                0x08006520       0xf8 build/stm32f1xx_hal_msp.o
                0x08006520                HAL_ADC_MspInit
 .text.HAL_I2C_MspInit
                0x08006618       0xfc build/stm32f1xx_hal_msp.o
                0x08006618                HAL_I2C_MspInit
 .text.LCD_I2C_WriteOut
                0x08006714       0x28 build/hd44780.o
                0x08006714                LCD_I2C_WriteOut
 .text.LCD_StateWriteBit
                0x0800673c       0x38 build/hd44780.o
                0x0800673c                LCD_StateWriteBit
 .text.LCD_StateLEDControl
                0x08006774       0x10 build/hd44780.o
                0x08006774                LCD_StateLEDControl
 .text.LCD_WriteToDataBus
                0x08006784       0xc8 build/hd44780.o
                0x08006784                LCD_WriteToDataBus
 .text.LCD_GetBusyFlag
                0x0800684c       0x8c build/hd44780.o
                0x0800684c                LCD_GetBusyFlag
 .text.LCD_WaitForBusyFlag
                0x080068d8       0x38 build/hd44780.o
                0x080068d8                LCD_WaitForBusyFlag
 .text.LCD_WriteCMD
                0x08006910       0x68 build/hd44780.o
                0x08006910                LCD_WriteCMD
 .text.LCD_WriteDATA
                0x08006978       0x5c build/hd44780.o
                0x08006978                LCD_WriteDATA
 .text.LCD_SetLocation
                0x080069d4       0x14 build/hd44780.o
                0x080069d4                LCD_SetLocation
 .text.LCD_WriteString
                0x080069e8       0x30 build/hd44780.o
                0x080069e8                LCD_WriteString
 .text.LCD_ClearDisplay
                0x08006a18        0xc build/hd44780.o
                0x08006a18                LCD_ClearDisplay
 .text.LCD_DisplayON
                0x08006a24       0x1c build/hd44780.o
                0x08006a24                LCD_DisplayON
 .text.LCD_WriteNumber
                0x08006a40       0x40 build/hd44780.o
                0x08006a40                LCD_WriteNumber
 .text.LCD_WriteFloat
                0x08006a80       0xd8 build/hd44780.o
                0x08006a80                LCD_WriteFloat
 .text.LCD_EntryModeSet
                0x08006b58       0x14 build/hd44780.o
                0x08006b58                LCD_EntryModeSet
 .text.LCD_Init
                0x08006b6c      0x140 build/hd44780.o
                0x08006b6c                LCD_Init
 .text.PCF8574_Init
                0x08006cac        0xc build/pcf8574.o
                0x08006cac                PCF8574_Init
 .text.PCF8574_Write
                0x08006cb8       0x30 build/pcf8574.o
                0x08006cb8                PCF8574_Write
 .text.PCF8574_Read
                0x08006ce8       0x28 build/pcf8574.o
                0x08006ce8                PCF8574_Read
 .text.Reset_Handler
                0x08006d10       0x48 build/startup_stm32f103xe.o
                0x08006d10                Reset_Handler
 .text.Default_Handler
                0x08006d58        0x2 build/startup_stm32f103xe.o
                0x08006d58                RTC_Alarm_IRQHandler
                0x08006d58                EXTI2_IRQHandler
                0x08006d58                TIM8_TRG_COM_IRQHandler
                0x08006d58                TIM6_IRQHandler
                0x08006d58                PVD_IRQHandler
                0x08006d58                SDIO_IRQHandler
                0x08006d58                EXTI0_IRQHandler
                0x08006d58                I2C2_EV_IRQHandler
                0x08006d58                ADC1_2_IRQHandler
                0x08006d58                SPI1_IRQHandler
                0x08006d58                TAMPER_IRQHandler
                0x08006d58                TIM8_UP_IRQHandler
                0x08006d58                DMA2_Channel2_IRQHandler
                0x08006d58                DMA1_Channel4_IRQHandler
                0x08006d58                USART3_IRQHandler
                0x08006d58                RTC_IRQHandler
                0x08006d58                DMA1_Channel7_IRQHandler
                0x08006d58                CAN1_RX1_IRQHandler
                0x08006d58                UART5_IRQHandler
                0x08006d58                ADC3_IRQHandler
                0x08006d58                TIM4_IRQHandler
                0x08006d58                DMA2_Channel1_IRQHandler
                0x08006d58                DMA1_Channel6_IRQHandler
                0x08006d58                UART4_IRQHandler
                0x08006d58                RCC_IRQHandler
                0x08006d58                TIM1_TRG_COM_IRQHandler
                0x08006d58                Default_Handler
                0x08006d58                TIM7_IRQHandler
                0x08006d58                TIM5_IRQHandler
                0x08006d58                SPI2_IRQHandler
                0x08006d58                DMA1_Channel5_IRQHandler
                0x08006d58                EXTI4_IRQHandler
                0x08006d58                USB_LP_CAN1_RX0_IRQHandler
                0x08006d58                USB_HP_CAN1_TX_IRQHandler
                0x08006d58                FSMC_IRQHandler
                0x08006d58                TIM1_UP_IRQHandler
                0x08006d58                WWDG_IRQHandler
                0x08006d58                TIM1_BRK_IRQHandler
                0x08006d58                EXTI1_IRQHandler
                0x08006d58                USART2_IRQHandler
                0x08006d58                TIM8_BRK_IRQHandler
                0x08006d58                CAN1_SCE_IRQHandler
                0x08006d58                FLASH_IRQHandler
                0x08006d58                USART1_IRQHandler
                0x08006d58                SPI3_IRQHandler
                0x08006d58                USBWakeUp_IRQHandler
                0x08006d58                DMA2_Channel3_IRQHandler
 *fill*         0x08006d5a        0x2 
 .text.__libc_init_array
                0x08006d5c       0x4c /home/niklas/gcc-arm-none-eabi-5_4-2016q3/bin/../lib/gcc/arm-none-eabi/5.4.1/../../../../arm-none-eabi/lib/armv7-m/libc_nano.a(lib_a-init.o)
                0x08006d5c                __libc_init_array
 *(.glue_7)
 .glue_7        0x08006da8        0x0 linker stubs
 *(.glue_7t)
 .glue_7t       0x08006da8        0x0 linker stubs
 *(.eh_frame)
 .eh_frame      0x08006da8        0x0 /home/niklas/gcc-arm-none-eabi-5_4-2016q3/bin/../lib/gcc/arm-none-eabi/5.4.1/armv7-m/crtbegin.o
 *(.init)
 .init          0x08006da8        0x4 /home/niklas/gcc-arm-none-eabi-5_4-2016q3/bin/../lib/gcc/arm-none-eabi/5.4.1/armv7-m/crti.o
                0x08006da8                _init
 .init          0x08006dac        0x8 /home/niklas/gcc-arm-none-eabi-5_4-2016q3/bin/../lib/gcc/arm-none-eabi/5.4.1/armv7-m/crtn.o
 *(.fini)
 .fini          0x08006db4        0x4 /home/niklas/gcc-arm-none-eabi-5_4-2016q3/bin/../lib/gcc/arm-none-eabi/5.4.1/armv7-m/crti.o
                0x08006db4                _fini
 .fini          0x08006db8        0x8 /home/niklas/gcc-arm-none-eabi-5_4-2016q3/bin/../lib/gcc/arm-none-eabi/5.4.1/armv7-m/crtn.o
                0x08006dc0                . = ALIGN (0x4)
                0x08006dc0                _etext = .

.vfp11_veneer   0x08006dc0        0x0
 .vfp11_veneer  0x08006dc0        0x0 linker stubs

.v4_bx          0x08006dc0        0x0
 .v4_bx         0x08006dc0        0x0 linker stubs

.iplt           0x08006dc0        0x0
 .iplt          0x08006dc0        0x0 /home/niklas/gcc-arm-none-eabi-5_4-2016q3/bin/../lib/gcc/arm-none-eabi/5.4.1/armv7-m/crtbegin.o

.rodata         0x08006dc0       0xac
                0x08006dc0                . = ALIGN (0x4)
 *(.rodata)
 .rodata        0x08006dc0       0x12 build/stm32f1xx_hal_rcc.o
 *(.rodata*)
 *fill*         0x08006dd2        0x2 
 .rodata.AHBPrescTable
                0x08006dd4       0x10 build/system_stm32f1xx.o
                0x08006dd4                AHBPrescTable
 .rodata.APBPrescTable
                0x08006de4        0x8 build/system_stm32f1xx.o
                0x08006de4                APBPrescTable
 .rodata.str1.4
                0x08006dec       0x75 build/main.o
 *fill*         0x08006e61        0x3 
 .rodata.str1.4
                0x08006e64        0x8 build/hd44780.o
                                  0x6 (size before relaxing)
                0x08006e6c                . = ALIGN (0x4)

.rel.dyn        0x08006e6c        0x0
 .rel.iplt      0x08006e6c        0x0 /home/niklas/gcc-arm-none-eabi-5_4-2016q3/bin/../lib/gcc/arm-none-eabi/5.4.1/armv7-m/crtbegin.o

.ARM.extab
 *(.ARM.extab* .gnu.linkonce.armextab.*)

.ARM            0x08006e6c        0x0
                0x08006e6c                __exidx_start = .
 *(.ARM.exidx*)
                0x08006e6c                __exidx_end = .

.preinit_array  0x08006e6c        0x0
                0x08006e6c                PROVIDE (__preinit_array_start, .)
 *(.preinit_array*)
                0x08006e6c                PROVIDE (__preinit_array_end, .)

.init_array     0x08006e6c        0x4
                0x08006e6c                PROVIDE (__init_array_start, .)
 *(SORT(.init_array.*))
 *(.init_array*)
 .init_array    0x08006e6c        0x4 /home/niklas/gcc-arm-none-eabi-5_4-2016q3/bin/../lib/gcc/arm-none-eabi/5.4.1/armv7-m/crtbegin.o
                0x08006e70                PROVIDE (__init_array_end, .)

.fini_array     0x08006e70        0x4
                [!provide]                PROVIDE (__fini_array_start, .)
 *(SORT(.fini_array.*))
 *(.fini_array*)
 .fini_array    0x08006e70        0x4 /home/niklas/gcc-arm-none-eabi-5_4-2016q3/bin/../lib/gcc/arm-none-eabi/5.4.1/armv7-m/crtbegin.o
                [!provide]                PROVIDE (__fini_array_end, .)
                0x08006e74                _sidata = LOADADDR (.data)

.data           0x20000000       0x24 load address 0x08006e74
                0x20000000                . = ALIGN (0x4)
                0x20000000                _sdata = .
 *(.data)
 *(.data*)
 .data.SystemCoreClock
                0x20000000        0x4 build/system_stm32f1xx.o
                0x20000000                SystemCoreClock
 .data.PCF8574_Type0Pins
                0x20000004       0x20 build/hd44780.o
                0x20000004                PCF8574_Type0Pins
                0x20000024                . = ALIGN (0x4)
                0x20000024                _edata = .

.jcr            0x20000024        0x0 load address 0x08006e98
 .jcr           0x20000024        0x0 /home/niklas/gcc-arm-none-eabi-5_4-2016q3/bin/../lib/gcc/arm-none-eabi/5.4.1/armv7-m/crtbegin.o

.igot.plt       0x20000024        0x0 load address 0x08006e98
 .igot.plt      0x20000024        0x0 /home/niklas/gcc-arm-none-eabi-5_4-2016q3/bin/../lib/gcc/arm-none-eabi/5.4.1/armv7-m/crtbegin.o
                0x20000024                . = ALIGN (0x4)

.bss            0x20000024      0x5bc load address 0x08006e98
                0x20000024                _sbss = .
                0x20000024                __bss_start__ = _sbss
 *(.bss)
 .bss           0x20000024       0x1c /home/niklas/gcc-arm-none-eabi-5_4-2016q3/bin/../lib/gcc/arm-none-eabi/5.4.1/armv7-m/crtbegin.o
 *(.bss*)
 .bss.uwTick    0x20000040        0x4 build/stm32f1xx_hal.o
 .bss.last_motorL.7435
                0x20000044        0x1 build/motor_L.o
 .bss.last_motorLStop.7436
                0x20000045        0x1 build/motor_L.o
 .bss.last_motorRStop.7448
                0x20000046        0x1 build/motor_R.o
 .bss.last_motorR.7447
                0x20000047        0x1 build/motor_R.o
 .bss.captured_value
                0x20000048       0x10 build/main.o
                0x20000048                captured_value
 .bss.rx_count  0x20000058        0x1 build/main.o
                0x20000058                rx_count
 *fill*         0x20000059        0x3 
 .bss.timeout   0x2000005c        0x4 build/main.o
                0x2000005c                timeout
 .bss.LCDerrorFlag
                0x20000060        0x1 build/hd44780.o
                0x20000060                LCDerrorFlag
 *(COMMON)
 *fill*         0x20000061        0x3 
 COMMON         0x20000064       0x70 build/ADC_L.o
                0x20000064                adc_Ldati
                0x2000006c                hdma_adc3
                0x200000a4                hadc3
 COMMON         0x200000d4       0x7c build/ADC_R.o
                0x200000d4                hadc1
                0x20000104                buffer
                0x2000010c                adc_Rdati
                0x20000118                hdma_adc1
 COMMON         0x20000150       0x84 build/pid.o
                0x20000150                pid_L_Dati
                0x2000016c                Tim3PID
                0x200001a8                pid_R_
                0x200001b0                pid_L_
                0x200001b8                pid_R_Dati
 COMMON         0x200001d4       0x54 build/motor_L.o
                0x200001d4                htim8
                0x20000210                motorL
 COMMON         0x20000228       0x54 build/motor_R.o
                0x20000228                motorR
                0x20000240                htim1
 COMMON         0x2000027c      0x12c build/uart.o
                0x2000027c                uartDati
                0x200002f8                hdma_usart3_rx
                0x20000330                huart3
                0x20000370                hdma_usart3_tx
 COMMON         0x200003a8       0xc0 build/i2c.o
                0x200003a8                wii_JOYdati
                0x200003bc                hi2c2
                0x200003f8                hdma_i2c2_rx
                0x20000430                hdma_i2c2_tx
 COMMON         0x20000468       0x3c build/delay.o
                0x20000468                TimHandle
 COMMON         0x200004a4       0x5c build/application.o
                0x200004a4                battery_dati
                0x200004b8                app
 COMMON         0x20000500       0xe0 build/main.o
                0x20000500                lcd
                0x2000058c                counterTemp
                0x20000590                hiwdg
                0x200005a0                counterTempTT
                0x200005a4                htim2
                0x200005e0                . = ALIGN (0x4)
                0x200005e0                _ebss = .
                0x200005e0                __bss_end__ = _ebss

._user_heap_stack
                0x200005e0      0x600 load address 0x08006e98
                0x200005e0                . = ALIGN (0x8)
                [!provide]                PROVIDE (end, .)
                [!provide]                PROVIDE (_end, .)
                0x200007e0                . = (. + _Min_Heap_Size)
 *fill*         0x200005e0      0x200 
                0x20000be0                . = (. + _Min_Stack_Size)
 *fill*         0x200007e0      0x400 
                0x20000be0                . = ALIGN (0x8)

/DISCARD/
 libc.a(*)
 libm.a(*)
 libgcc.a(*)

.ARM.attributes
                0x00000000       0x29
 *(.ARM.attributes)
 .ARM.attributes
                0x00000000       0x1d /home/niklas/gcc-arm-none-eabi-5_4-2016q3/bin/../lib/gcc/arm-none-eabi/5.4.1/armv7-m/crti.o
 .ARM.attributes
                0x0000001d       0x2d /home/niklas/gcc-arm-none-eabi-5_4-2016q3/bin/../lib/gcc/arm-none-eabi/5.4.1/armv7-m/crtbegin.o
 .ARM.attributes
                0x0000004a       0x33 build/stm32f1xx_hal_adc.o
 .ARM.attributes
                0x0000007d       0x33 build/stm32f1xx_hal_tim_ex.o
 .ARM.attributes
                0x000000b0       0x33 build/stm32f1xx_hal_cortex.o
 .ARM.attributes
                0x000000e3       0x33 build/stm32f1xx_hal_gpio.o
 .ARM.attributes
                0x00000116       0x33 build/system_stm32f1xx.o
 .ARM.attributes
                0x00000149       0x33 build/stm32f1xx_hal_tim.o
 .ARM.attributes
                0x0000017c       0x33 build/stm32f1xx_it.o
 .ARM.attributes
                0x000001af       0x33 build/stm32f1xx_hal_rcc.o
 .ARM.attributes
                0x000001e2       0x33 build/stm32f1xx_hal_dma.o
 .ARM.attributes
                0x00000215       0x33 build/stm32f1xx_hal.o
 .ARM.attributes
                0x00000248       0x33 build/stm32f1xx_hal_i2c.o
 .ARM.attributes
                0x0000027b       0x33 build/stm32f1xx_hal_rcc_ex.o
 .ARM.attributes
                0x000002ae       0x33 build/stm32f1xx_hal_iwdg.o
 .ARM.attributes
                0x000002e1       0x33 build/ADC_L.o
 .ARM.attributes
                0x00000314       0x33 build/ADC_R.o
 .ARM.attributes
                0x00000347       0x33 build/pid.o
 .ARM.attributes
                0x0000037a       0x33 build/motor_L.o
 .ARM.attributes
                0x000003ad       0x33 build/motor_R.o
 .ARM.attributes
                0x000003e0       0x33 build/uart.o
 .ARM.attributes
                0x00000413       0x33 build/varie.o
 .ARM.attributes
                0x00000446       0x33 build/i2c.o
 .ARM.attributes
                0x00000479       0x33 build/delay.o
 .ARM.attributes
                0x000004ac       0x33 build/application.o
 .ARM.attributes
                0x000004df       0x33 build/main.o
 .ARM.attributes
                0x00000512       0x33 build/stm32f1xx_hal_msp.o
 .ARM.attributes
                0x00000545       0x33 build/hd44780.o
 .ARM.attributes
                0x00000578       0x33 build/pcf8574.o
 .ARM.attributes
                0x000005ab       0x21 build/startup_stm32f103xe.o
 .ARM.attributes
                0x000005cc       0x2d /home/niklas/gcc-arm-none-eabi-5_4-2016q3/bin/../lib/gcc/arm-none-eabi/5.4.1/../../../../arm-none-eabi/lib/armv7-m/libc_nano.a(lib_a-init.o)
 .ARM.attributes
                0x000005f9       0x1d /home/niklas/gcc-arm-none-eabi-5_4-2016q3/bin/../lib/gcc/arm-none-eabi/5.4.1/armv7-m/libgcc.a(_arm_addsubdf3.o)
 .ARM.attributes
                0x00000616       0x1d /home/niklas/gcc-arm-none-eabi-5_4-2016q3/bin/../lib/gcc/arm-none-eabi/5.4.1/armv7-m/libgcc.a(_arm_muldivdf3.o)
 .ARM.attributes
                0x00000633       0x1d /home/niklas/gcc-arm-none-eabi-5_4-2016q3/bin/../lib/gcc/arm-none-eabi/5.4.1/armv7-m/libgcc.a(_arm_cmpdf2.o)
 .ARM.attributes
                0x00000650       0x1d /home/niklas/gcc-arm-none-eabi-5_4-2016q3/bin/../lib/gcc/arm-none-eabi/5.4.1/armv7-m/libgcc.a(_arm_fixdfsi.o)
 .ARM.attributes
                0x0000066d       0x1d /home/niklas/gcc-arm-none-eabi-5_4-2016q3/bin/../lib/gcc/arm-none-eabi/5.4.1/armv7-m/libgcc.a(_arm_fixunsdfsi.o)
 .ARM.attributes
                0x0000068a       0x1d /home/niklas/gcc-arm-none-eabi-5_4-2016q3/bin/../lib/gcc/arm-none-eabi/5.4.1/armv7-m/libgcc.a(_arm_truncdfsf2.o)
 .ARM.attributes
                0x000006a7       0x1d /home/niklas/gcc-arm-none-eabi-5_4-2016q3/bin/../lib/gcc/arm-none-eabi/5.4.1/armv7-m/libgcc.a(_arm_addsubsf3.o)
 .ARM.attributes
                0x000006c4       0x1d /home/niklas/gcc-arm-none-eabi-5_4-2016q3/bin/../lib/gcc/arm-none-eabi/5.4.1/armv7-m/libgcc.a(_arm_muldivsf3.o)
 .ARM.attributes
                0x000006e1       0x1d /home/niklas/gcc-arm-none-eabi-5_4-2016q3/bin/../lib/gcc/arm-none-eabi/5.4.1/armv7-m/libgcc.a(_arm_cmpsf2.o)
 .ARM.attributes
                0x000006fe       0x1d /home/niklas/gcc-arm-none-eabi-5_4-2016q3/bin/../lib/gcc/arm-none-eabi/5.4.1/armv7-m/libgcc.a(_arm_fixsfsi.o)
 .ARM.attributes
                0x0000071b       0x1d /home/niklas/gcc-arm-none-eabi-5_4-2016q3/bin/../lib/gcc/arm-none-eabi/5.4.1/armv7-m/crtn.o
OUTPUT(build/hoverboard.elf elf32-littlearm)

.debug_info     0x00000000    0x1b416
 .debug_info    0x00000000     0x10e6 build/stm32f1xx_hal_adc.o
 .debug_info    0x000010e6     0x1331 build/stm32f1xx_hal_tim_ex.o
 .debug_info    0x00002417      0xd3b build/stm32f1xx_hal_cortex.o
 .debug_info    0x00003152      0x66e build/stm32f1xx_hal_gpio.o
 .debug_info    0x000037c0      0x437 build/system_stm32f1xx.o
 .debug_info    0x00003bf7     0x3036 build/stm32f1xx_hal_tim.o
 .debug_info    0x00006c2d      0xfd7 build/stm32f1xx_it.o
 .debug_info    0x00007c04     0x135c build/stm32f1xx_hal_rcc.o
 .debug_info    0x00008f60      0x6a4 build/stm32f1xx_hal_dma.o
 .debug_info    0x00009604      0x78c build/stm32f1xx_hal.o
 .debug_info    0x00009d90     0x2c0b build/stm32f1xx_hal_i2c.o
 .debug_info    0x0000c99b      0x5fa build/stm32f1xx_hal_rcc_ex.o
 .debug_info    0x0000cf95      0x369 build/stm32f1xx_hal_iwdg.o
 .debug_info    0x0000d2fe      0xaeb build/ADC_L.o
 .debug_info    0x0000dde9      0xcba build/ADC_R.o
 .debug_info    0x0000eaa3      0xdb8 build/pid.o
 .debug_info    0x0000f85b     0x1418 build/motor_L.o
 .debug_info    0x00010c73     0x142d build/motor_R.o
 .debug_info    0x000120a0      0xa6e build/uart.o
 .debug_info    0x00012b0e      0xd3e build/varie.o
 .debug_info    0x0001384c      0xc97 build/i2c.o
 .debug_info    0x000144e3      0x7bf build/delay.o
 .debug_info    0x00014ca2      0xfdf build/application.o
 .debug_info    0x00015c81     0x2308 build/main.o
 .debug_info    0x00017f89     0x159f build/stm32f1xx_hal_msp.o
 .debug_info    0x00019528     0x1758 build/hd44780.o
 .debug_info    0x0001ac80      0x739 build/pcf8574.o
 .debug_info    0x0001b3b9       0x5d build/startup_stm32f103xe.o

.debug_abbrev   0x00000000     0x3b2f
 .debug_abbrev  0x00000000      0x27e build/stm32f1xx_hal_adc.o
 .debug_abbrev  0x0000027e      0x251 build/stm32f1xx_hal_tim_ex.o
 .debug_abbrev  0x000004cf      0x2d2 build/stm32f1xx_hal_cortex.o
 .debug_abbrev  0x000007a1      0x202 build/stm32f1xx_hal_gpio.o
 .debug_abbrev  0x000009a3      0x124 build/system_stm32f1xx.o
 .debug_abbrev  0x00000ac7      0x278 build/stm32f1xx_hal_tim.o
 .debug_abbrev  0x00000d3f      0x252 build/stm32f1xx_it.o
 .debug_abbrev  0x00000f91      0x2a1 build/stm32f1xx_hal_rcc.o
 .debug_abbrev  0x00001232      0x22a build/stm32f1xx_hal_dma.o
 .debug_abbrev  0x0000145c      0x21f build/stm32f1xx_hal.o
 .debug_abbrev  0x0000167b      0x26b build/stm32f1xx_hal_i2c.o
 .debug_abbrev  0x000018e6      0x217 build/stm32f1xx_hal_rcc_ex.o
 .debug_abbrev  0x00001afd      0x1ba build/stm32f1xx_hal_iwdg.o
 .debug_abbrev  0x00001cb7      0x20d build/ADC_L.o
 .debug_abbrev  0x00001ec4      0x20d build/ADC_R.o
 .debug_abbrev  0x000020d1      0x25e build/pid.o
 .debug_abbrev  0x0000232f      0x265 build/motor_L.o
 .debug_abbrev  0x00002594      0x265 build/motor_R.o
 .debug_abbrev  0x000027f9      0x1f1 build/uart.o
 .debug_abbrev  0x000029ea      0x1d1 build/varie.o
 .debug_abbrev  0x00002bbb      0x211 build/i2c.o
 .debug_abbrev  0x00002dcc      0x1c2 build/delay.o
 .debug_abbrev  0x00002f8e      0x2a6 build/application.o
 .debug_abbrev  0x00003234      0x2e2 build/main.o
 .debug_abbrev  0x00003516      0x204 build/stm32f1xx_hal_msp.o
 .debug_abbrev  0x0000371a      0x289 build/hd44780.o
 .debug_abbrev  0x000039a3      0x17a build/pcf8574.o
 .debug_abbrev  0x00003b1d       0x12 build/startup_stm32f103xe.o

.debug_loc      0x00000000     0xe10c
 .debug_loc     0x00000000      0xce2 build/stm32f1xx_hal_adc.o
 .debug_loc     0x00000ce2     0x10ab build/stm32f1xx_hal_tim_ex.o
 .debug_loc     0x00001d8d      0x59f build/stm32f1xx_hal_cortex.o
 .debug_loc     0x0000232c      0x410 build/stm32f1xx_hal_gpio.o
 .debug_loc     0x0000273c       0xdf build/system_stm32f1xx.o
 .debug_loc     0x0000281b     0x3cd1 build/stm32f1xx_hal_tim.o
 .debug_loc     0x000064ec      0x240 build/stm32f1xx_it.o
 .debug_loc     0x0000672c      0xa49 build/stm32f1xx_hal_rcc.o
 .debug_loc     0x00007175      0x527 build/stm32f1xx_hal_dma.o
 .debug_loc     0x0000769c      0x119 build/stm32f1xx_hal.o
 .debug_loc     0x000077b5     0x33cf build/stm32f1xx_hal_i2c.o
 .debug_loc     0x0000ab84      0x3e5 build/stm32f1xx_hal_rcc_ex.o
 .debug_loc     0x0000af69      0x16d build/stm32f1xx_hal_iwdg.o
 .debug_loc     0x0000b0d6      0x11f build/ADC_L.o
 .debug_loc     0x0000b1f5      0x230 build/ADC_R.o
 .debug_loc     0x0000b425      0x340 build/pid.o
 .debug_loc     0x0000b765      0x1d3 build/motor_L.o
 .debug_loc     0x0000b938      0x1d3 build/motor_R.o
 .debug_loc     0x0000bb0b       0xd0 build/uart.o
 .debug_loc     0x0000bbdb      0x36d build/varie.o
 .debug_loc     0x0000bf48       0xe7 build/i2c.o
 .debug_loc     0x0000c02f      0x132 build/delay.o
 .debug_loc     0x0000c161      0xa0a build/application.o
 .debug_loc     0x0000cb6b      0x29f build/main.o
 .debug_loc     0x0000ce0a      0x2e5 build/stm32f1xx_hal_msp.o
 .debug_loc     0x0000d0ef      0xe75 build/hd44780.o
 .debug_loc     0x0000df64      0x1a8 build/pcf8574.o

.debug_aranges  0x00000000     0x1270
 .debug_aranges
                0x00000000       0xf0 build/stm32f1xx_hal_adc.o
 .debug_aranges
                0x000000f0      0x138 build/stm32f1xx_hal_tim_ex.o
 .debug_aranges
                0x00000228       0x90 build/stm32f1xx_hal_cortex.o
 .debug_aranges
                0x000002b8       0x58 build/stm32f1xx_hal_gpio.o
 .debug_aranges
                0x00000310       0x28 build/system_stm32f1xx.o
 .debug_aranges
                0x00000338      0x368 build/stm32f1xx_hal_tim.o
 .debug_aranges
                0x000006a0       0xd0 build/stm32f1xx_it.o
 .debug_aranges
                0x00000770       0x88 build/stm32f1xx_hal_rcc.o
 .debug_aranges
                0x000007f8       0x68 build/stm32f1xx_hal_dma.o
 .debug_aranges
                0x00000860       0xb0 build/stm32f1xx_hal.o
 .debug_aranges
                0x00000910      0x218 build/stm32f1xx_hal_i2c.o
 .debug_aranges
                0x00000b28       0x30 build/stm32f1xx_hal_rcc_ex.o
 .debug_aranges
                0x00000b58       0x40 build/stm32f1xx_hal_iwdg.o
 .debug_aranges
                0x00000b98       0x48 build/ADC_L.o
 .debug_aranges
                0x00000be0       0x68 build/ADC_R.o
 .debug_aranges
                0x00000c48       0x50 build/pid.o
 .debug_aranges
                0x00000c98       0xe0 build/motor_L.o
 .debug_aranges
                0x00000d78       0xe0 build/motor_R.o
 .debug_aranges
                0x00000e58       0x50 build/uart.o
 .debug_aranges
                0x00000ea8       0xb0 build/varie.o
 .debug_aranges
                0x00000f58       0x50 build/i2c.o
 .debug_aranges
                0x00000fa8       0x40 build/delay.o
 .debug_aranges
                0x00000fe8       0xb8 build/application.o
 .debug_aranges
                0x000010a0       0x50 build/main.o
 .debug_aranges
                0x000010f0       0x58 build/stm32f1xx_hal_msp.o
 .debug_aranges
                0x00001148       0xc8 build/hd44780.o
 .debug_aranges
                0x00001210       0x38 build/pcf8574.o
 .debug_aranges
                0x00001248       0x28 build/startup_stm32f103xe.o

.debug_ranges   0x00000000     0x10e8
 .debug_ranges  0x00000000       0xe0 build/stm32f1xx_hal_adc.o
 .debug_ranges  0x000000e0      0x128 build/stm32f1xx_hal_tim_ex.o
 .debug_ranges  0x00000208       0x80 build/stm32f1xx_hal_cortex.o
 .debug_ranges  0x00000288       0x48 build/stm32f1xx_hal_gpio.o
 .debug_ranges  0x000002d0       0x18 build/system_stm32f1xx.o
 .debug_ranges  0x000002e8      0x358 build/stm32f1xx_hal_tim.o
 .debug_ranges  0x00000640       0xc0 build/stm32f1xx_it.o
 .debug_ranges  0x00000700       0x78 build/stm32f1xx_hal_rcc.o
 .debug_ranges  0x00000778       0x58 build/stm32f1xx_hal_dma.o
 .debug_ranges  0x000007d0       0xa0 build/stm32f1xx_hal.o
 .debug_ranges  0x00000870      0x208 build/stm32f1xx_hal_i2c.o
 .debug_ranges  0x00000a78       0x20 build/stm32f1xx_hal_rcc_ex.o
 .debug_ranges  0x00000a98       0x30 build/stm32f1xx_hal_iwdg.o
 .debug_ranges  0x00000ac8       0x38 build/ADC_L.o
 .debug_ranges  0x00000b00       0x58 build/ADC_R.o
 .debug_ranges  0x00000b58       0x40 build/pid.o
 .debug_ranges  0x00000b98       0xd0 build/motor_L.o
 .debug_ranges  0x00000c68       0xd0 build/motor_R.o
 .debug_ranges  0x00000d38       0x40 build/uart.o
 .debug_ranges  0x00000d78       0xb8 build/varie.o
 .debug_ranges  0x00000e30       0x40 build/i2c.o
 .debug_ranges  0x00000e70       0x30 build/delay.o
 .debug_ranges  0x00000ea0       0xa8 build/application.o
 .debug_ranges  0x00000f48       0x40 build/main.o
 .debug_ranges  0x00000f88       0x48 build/stm32f1xx_hal_msp.o
 .debug_ranges  0x00000fd0       0xd0 build/hd44780.o
 .debug_ranges  0x000010a0       0x28 build/pcf8574.o
 .debug_ranges  0x000010c8       0x20 build/startup_stm32f103xe.o

.debug_line     0x00000000     0x8af6
 .debug_line    0x00000000      0x7ea build/stm32f1xx_hal_adc.o
 .debug_line    0x000007ea      0x797 build/stm32f1xx_hal_tim_ex.o
 .debug_line    0x00000f81      0x312 build/stm32f1xx_hal_cortex.o
 .debug_line    0x00001293      0x362 build/stm32f1xx_hal_gpio.o
 .debug_line    0x000015f5      0x19a build/system_stm32f1xx.o
 .debug_line    0x0000178f     0x11aa build/stm32f1xx_hal_tim.o
 .debug_line    0x00002939      0x423 build/stm32f1xx_it.o
 .debug_line    0x00002d5c      0x704 build/stm32f1xx_hal_rcc.o
 .debug_line    0x00003460      0xa62 build/stm32f1xx_hal_dma.o
 .debug_line    0x00003ec2      0x341 build/stm32f1xx_hal.o
 .debug_line    0x00004203     0x1188 build/stm32f1xx_hal_i2c.o
 .debug_line    0x0000538b      0x31e build/stm32f1xx_hal_rcc_ex.o
 .debug_line    0x000056a9      0x298 build/stm32f1xx_hal_iwdg.o
 .debug_line    0x00005941      0x266 build/ADC_L.o
 .debug_line    0x00005ba7      0x2c4 build/ADC_R.o
 .debug_line    0x00005e6b      0x2c3 build/pid.o
 .debug_line    0x0000612e      0x4d2 build/motor_L.o
 .debug_line    0x00006600      0x4d5 build/motor_R.o
 .debug_line    0x00006ad5      0x2a3 build/uart.o
 .debug_line    0x00006d78      0x402 build/varie.o
 .debug_line    0x0000717a      0x2cb build/i2c.o
 .debug_line    0x00007445      0x229 build/delay.o
 .debug_line    0x0000766e      0x550 build/application.o
 .debug_line    0x00007bbe      0x512 build/main.o
 .debug_line    0x000080d0      0x33d build/stm32f1xx_hal_msp.o
 .debug_line    0x0000840d      0x46e build/hd44780.o
 .debug_line    0x0000887b      0x209 build/pcf8574.o
 .debug_line    0x00008a84       0x72 build/startup_stm32f103xe.o

.debug_str      0x00000000     0x4cde
 .debug_str     0x00000000      0x80b build/stm32f1xx_hal_adc.o
                                0x8bb (size before relaxing)
 .debug_str     0x0000080b      0x7d9 build/stm32f1xx_hal_tim_ex.o
                                0xbb5 (size before relaxing)
 .debug_str     0x00000fe4      0x6fb build/stm32f1xx_hal_cortex.o
                                0x999 (size before relaxing)
 .debug_str     0x000016df      0x203 build/stm32f1xx_hal_gpio.o
                                0x410 (size before relaxing)
 .debug_str     0x000018e2       0x68 build/system_stm32f1xx.o
                                0x2b7 (size before relaxing)
 .debug_str     0x0000194a      0xc0c build/stm32f1xx_hal_tim.o
                               0x131b (size before relaxing)
 .debug_str     0x00002556      0x4b4 build/stm32f1xx_it.o
                                0xb60 (size before relaxing)
 .debug_str     0x00002a0a      0x320 build/stm32f1xx_hal_rcc.o
                                0x60d (size before relaxing)
 .debug_str     0x00002d2a      0x115 build/stm32f1xx_hal_dma.o
                                0x4fc (size before relaxing)
 .debug_str     0x00002e3f      0x18f build/stm32f1xx_hal.o
                                0x83b (size before relaxing)
 .debug_str     0x00002fce      0x658 build/stm32f1xx_hal_i2c.o
                                0xc7b (size before relaxing)
 .debug_str     0x00003626      0x135 build/stm32f1xx_hal_rcc_ex.o
                                0x416 (size before relaxing)
 .debug_str     0x0000375b      0x147 build/stm32f1xx_hal_iwdg.o
                                0x370 (size before relaxing)
 .debug_str     0x000038a2       0x99 build/ADC_L.o
                                0xa0f (size before relaxing)
 .debug_str     0x0000393b       0xb8 build/ADC_R.o
                                0xa45 (size before relaxing)
 .debug_str     0x000039f3       0xd4 build/pid.o
                                0xb8c (size before relaxing)
 .debug_str     0x00003ac7      0x223 build/motor_L.o
                                0xdc7 (size before relaxing)
 .debug_str     0x00003cea      0x16f build/motor_R.o
                                0xdc7 (size before relaxing)
 .debug_str     0x00003e59      0x286 build/uart.o
                                0xa82 (size before relaxing)
 .debug_str     0x000040df      0x10a build/varie.o
                                0x8b0 (size before relaxing)
 .debug_str     0x000041e9       0xae build/i2c.o
                                0xb39 (size before relaxing)
 .debug_str     0x00004297       0x4b build/delay.o
                                0x5ff (size before relaxing)
 .debug_str     0x000042e2      0x460 build/application.o
                                0x874 (size before relaxing)
 .debug_str     0x00004742      0x2a5 build/main.o
                               0x1502 (size before relaxing)
 .debug_str     0x000049e7       0x47 build/stm32f1xx_hal_msp.o
                                0xf9e (size before relaxing)
 .debug_str     0x00004a2e      0x291 build/hd44780.o
                                0x98d (size before relaxing)
 .debug_str     0x00004cbf       0x1f build/pcf8574.o
                                0x669 (size before relaxing)

.comment        0x00000000       0x6e
 .comment       0x00000000       0x6e build/stm32f1xx_hal_adc.o
                                 0x6f (size before relaxing)
 .comment       0x0000006e       0x6f build/stm32f1xx_hal_tim_ex.o
 .comment       0x0000006e       0x6f build/stm32f1xx_hal_cortex.o
 .comment       0x0000006e       0x6f build/stm32f1xx_hal_gpio.o
 .comment       0x0000006e       0x6f build/system_stm32f1xx.o
 .comment       0x0000006e       0x6f build/stm32f1xx_hal_tim.o
 .comment       0x0000006e       0x6f build/stm32f1xx_it.o
 .comment       0x0000006e       0x6f build/stm32f1xx_hal_rcc.o
 .comment       0x0000006e       0x6f build/stm32f1xx_hal_dma.o
 .comment       0x0000006e       0x6f build/stm32f1xx_hal.o
 .comment       0x0000006e       0x6f build/stm32f1xx_hal_i2c.o
 .comment       0x0000006e       0x6f build/stm32f1xx_hal_rcc_ex.o
 .comment       0x0000006e       0x6f build/stm32f1xx_hal_iwdg.o
 .comment       0x0000006e       0x6f build/ADC_L.o
 .comment       0x0000006e       0x6f build/ADC_R.o
 .comment       0x0000006e       0x6f build/pid.o
 .comment       0x0000006e       0x6f build/motor_L.o
 .comment       0x0000006e       0x6f build/motor_R.o
 .comment       0x0000006e       0x6f build/uart.o
 .comment       0x0000006e       0x6f build/varie.o
 .comment       0x0000006e       0x6f build/i2c.o
 .comment       0x0000006e       0x6f build/delay.o
 .comment       0x0000006e       0x6f build/application.o
 .comment       0x0000006e       0x6f build/main.o
 .comment       0x0000006e       0x6f build/stm32f1xx_hal_msp.o
 .comment       0x0000006e       0x6f build/hd44780.o
 .comment       0x0000006e       0x6f build/pcf8574.o

.debug_frame    0x00000000     0x3748
 .debug_frame   0x00000000      0x334 build/stm32f1xx_hal_adc.o
 .debug_frame   0x00000334      0x440 build/stm32f1xx_hal_tim_ex.o
 .debug_frame   0x00000774      0x134 build/stm32f1xx_hal_cortex.o
 .debug_frame   0x000008a8       0xd4 build/stm32f1xx_hal_gpio.o
 .debug_frame   0x0000097c       0x30 build/system_stm32f1xx.o
 .debug_frame   0x000009ac      0xb08 build/stm32f1xx_hal_tim.o
 .debug_frame   0x000014b4      0x258 build/stm32f1xx_it.o
 .debug_frame   0x0000170c      0x170 build/stm32f1xx_hal_rcc.o
 .debug_frame   0x0000187c      0x128 build/stm32f1xx_hal_dma.o
 .debug_frame   0x000019a4      0x174 build/stm32f1xx_hal.o
 .debug_frame   0x00001b18      0x808 build/stm32f1xx_hal_i2c.o
 .debug_frame   0x00002320       0x74 build/stm32f1xx_hal_rcc_ex.o
 .debug_frame   0x00002394       0x8c build/stm32f1xx_hal_iwdg.o
 .debug_frame   0x00002420       0xb0 build/ADC_L.o
 .debug_frame   0x000024d0      0x120 build/ADC_R.o
 .debug_frame   0x000025f0       0xf0 build/pid.o
 .debug_frame   0x000026e0      0x21c build/motor_L.o
 .debug_frame   0x000028fc      0x218 build/motor_R.o
 .debug_frame   0x00002b14       0xa4 build/uart.o
 .debug_frame   0x00002bb8      0x210 build/varie.o
 .debug_frame   0x00002dc8       0xb8 build/i2c.o
 .debug_frame   0x00002e80       0xa4 build/delay.o
 .debug_frame   0x00002f24      0x274 build/application.o
 .debug_frame   0x00003198       0xec build/main.o
 .debug_frame   0x00003284      0x12c build/stm32f1xx_hal_msp.o
 .debug_frame   0x000033b0      0x2f4 build/hd44780.o
 .debug_frame   0x000036a4       0x78 build/pcf8574.o
 .debug_frame   0x0000371c       0x2c /home/niklas/gcc-arm-none-eabi-5_4-2016q3/bin/../lib/gcc/arm-none-eabi/5.4.1/../../../../arm-none-eabi/lib/armv7-m/libc_nano.a(lib_a-init.o)

Cross Reference Table

Symbol                                            File
ADC1_2_IRQHandler                                 build/startup_stm32f103xe.o
ADC3_IRQHandler                                   build/startup_stm32f103xe.o
ADC_BATTERY                                       build/ADC_R.o
                                                  build/application.o
ADC_ConversionStop_Disable                        build/stm32f1xx_hal_adc.o
                                                  build/stm32f1xx_hal_adc_ex.o
ADC_DMAConvCplt                                   build/stm32f1xx_hal_adc.o
                                                  build/stm32f1xx_hal_adc_ex.o
ADC_DMAError                                      build/stm32f1xx_hal_adc.o
                                                  build/stm32f1xx_hal_adc_ex.o
ADC_DMAHalfConvCplt                               build/stm32f1xx_hal_adc.o
                                                  build/stm32f1xx_hal_adc_ex.o
ADC_Enable                                        build/stm32f1xx_hal_adc.o
                                                  build/stm32f1xx_hal_adc_ex.o
ADC_L_ResetFlag                                   build/ADC_L.o
ADC_L_callback                                    build/ADC_L.o
                                                  build/main.o
ADC_L_init                                        build/ADC_L.o
                                                  build/main.o
ADC_MOTOR_LEFT                                    build/ADC_L.o
                                                  build/application.o
ADC_MOTOR_LEFT_IS_CONV                            build/ADC_L.o
ADC_MOTOR_RIGHT                                   build/ADC_R.o
                                                  build/application.o
ADC_MOTOR_RIGHT_IS_CONV                           build/ADC_R.o
ADC_PA2                                           build/ADC_R.o
ADC_PA3                                           build/ADC_R.o
ADC_R_ResetFlag                                   build/ADC_R.o
ADC_R_callback                                    build/ADC_R.o
                                                  build/main.o
ADC_R_init                                        build/ADC_R.o
                                                  build/main.o
AHBPrescTable                                     build/system_stm32f1xx.o
                                                  build/stm32f1xx_hal_rcc.o
APBPrescTable                                     build/system_stm32f1xx.o
                                                  build/stm32f1xx_hal_rcc.o
Battery_TASK                                      build/application.o
                                                  build/main.o
Battery_power                                     build/application.o
BusFault_Handler                                  build/stm32f1xx_it.o
Button_init                                       build/varie.o
                                                  build/main.o
Buzzer_OneBeep                                    build/varie.o
Buzzer_OneLongBeep                                build/varie.o
                                                  build/main.o
                                                  build/application.o
Buzzer_OneShortBeep                               build/varie.o
                                                  build/application.o
Buzzer_Set                                        build/varie.o
Buzzer_TwoBeep                                    build/varie.o
                                                  build/main.o
Buzzer_init                                       build/varie.o
                                                  build/main.o
CAN1_RX1_IRQHandler                               build/startup_stm32f103xe.o
CAN1_SCE_IRQHandler                               build/startup_stm32f103xe.o
Console_Log                                       build/uart.o
Current_Motor_TASK                                build/application.o
DMA1_Channel1_IRQHandler                          build/stm32f1xx_it.o
DMA1_Channel2_IRQHandler                          build/stm32f1xx_it.o
DMA1_Channel3_IRQHandler                          build/stm32f1xx_it.o
DMA1_Channel4_IRQHandler                          build/startup_stm32f103xe.o
DMA1_Channel5_IRQHandler                          build/startup_stm32f103xe.o
DMA1_Channel6_IRQHandler                          build/startup_stm32f103xe.o
DMA1_Channel7_IRQHandler                          build/startup_stm32f103xe.o
DMA2_Channel1_IRQHandler                          build/startup_stm32f103xe.o
DMA2_Channel2_IRQHandler                          build/startup_stm32f103xe.o
DMA2_Channel3_IRQHandler                          build/startup_stm32f103xe.o
DMA2_Channel4_5_IRQHandler                        build/stm32f1xx_it.o
DataVar                                           build/eeprom.o
DebugMon_Handler                                  build/stm32f1xx_it.o
DebugPin4_OFF                                     build/varie.o
DebugPin4_ON                                      build/varie.o
DebugPin5_OFF                                     build/varie.o
DebugPin5_ON                                      build/varie.o
DebugPin_init                                     build/varie.o
Default_Handler                                   build/startup_stm32f103xe.o
Delay_ms                                          build/delay.o
Delay_us                                          build/delay.o
                                                  build/varie.o
EE_Init                                           build/eeprom.o
EE_ReadVariable                                   build/eeprom.o
EE_WriteVariable                                  build/eeprom.o
                                                  build/main.o
EXTI0_IRQHandler                                  build/startup_stm32f103xe.o
EXTI15_10_IRQHandler                              build/stm32f1xx_it.o
EXTI1_IRQHandler                                  build/startup_stm32f103xe.o
EXTI2_IRQHandler                                  build/startup_stm32f103xe.o
EXTI3_IRQHandler                                  build/stm32f1xx_it.o
EXTI4_IRQHandler                                  build/startup_stm32f103xe.o
EXTI9_5_IRQHandler                                build/stm32f1xx_it.o
Error_Handler                                     build/main.o
                                                  build/stm32f1xx_hal_msp.o
                                                  build/i2c.o
                                                  build/uart.o
                                                  build/pid.o
                                                  build/ADC_R.o
                                                  build/ADC_L.o
FLASH_IRQHandler                                  build/startup_stm32f103xe.o
FLASH_PageErase                                   build/stm32f1xx_hal_flash_ex.o
                                                  build/stm32f1xx_hal_flash.o
FLASH_WaitForLastOperation                        build/stm32f1xx_hal_flash.o
                                                  build/stm32f1xx_hal_flash_ex.o
FSMC_IRQHandler                                   build/startup_stm32f103xe.o
GET_BATTERY_VOLT                                  build/ADC_R.o
GET_BatteryAverage                                build/application.o
                                                  build/main.o
GET_MOTOR_L_AMP                                   build/ADC_L.o
GET_MOTOR_R_AMP                                   build/ADC_R.o
HALL_L_ISR_Callback                               build/motor_L.o
                                                  build/stm32f1xx_it.o
HALL_R_ISR_Callback                               build/motor_R.o
                                                  build/stm32f1xx_it.o
HAL_ADCEx_Calibration_Start                       build/stm32f1xx_hal_adc_ex.o
HAL_ADCEx_InjectedConfigChannel                   build/stm32f1xx_hal_adc_ex.o
HAL_ADCEx_InjectedConvCpltCallback                build/stm32f1xx_hal_adc_ex.o
                                                  build/stm32f1xx_hal_adc.o
HAL_ADCEx_InjectedGetValue                        build/stm32f1xx_hal_adc_ex.o
HAL_ADCEx_InjectedPollForConversion               build/stm32f1xx_hal_adc_ex.o
HAL_ADCEx_InjectedStart                           build/stm32f1xx_hal_adc_ex.o
HAL_ADCEx_InjectedStart_IT                        build/stm32f1xx_hal_adc_ex.o
HAL_ADCEx_InjectedStop                            build/stm32f1xx_hal_adc_ex.o
HAL_ADCEx_InjectedStop_IT                         build/stm32f1xx_hal_adc_ex.o
HAL_ADCEx_MultiModeConfigChannel                  build/stm32f1xx_hal_adc_ex.o
HAL_ADCEx_MultiModeGetValue                       build/stm32f1xx_hal_adc_ex.o
HAL_ADCEx_MultiModeStart_DMA                      build/stm32f1xx_hal_adc_ex.o
HAL_ADCEx_MultiModeStop_DMA                       build/stm32f1xx_hal_adc_ex.o
HAL_ADC_AnalogWDGConfig                           build/stm32f1xx_hal_adc.o
HAL_ADC_ConfigChannel                             build/stm32f1xx_hal_adc.o
                                                  build/ADC_R.o
                                                  build/ADC_L.o
HAL_ADC_ConvCpltCallback                          build/main.o
                                                  build/stm32f1xx_hal_adc.o
HAL_ADC_ConvHalfCpltCallback                      build/stm32f1xx_hal_adc.o
HAL_ADC_DeInit                                    build/stm32f1xx_hal_adc.o
HAL_ADC_ErrorCallback                             build/stm32f1xx_hal_adc.o
HAL_ADC_GetError                                  build/stm32f1xx_hal_adc.o
HAL_ADC_GetState                                  build/stm32f1xx_hal_adc.o
HAL_ADC_GetValue                                  build/stm32f1xx_hal_adc.o
HAL_ADC_IRQHandler                                build/stm32f1xx_hal_adc.o
HAL_ADC_Init                                      build/stm32f1xx_hal_adc.o
                                                  build/ADC_R.o
                                                  build/ADC_L.o
HAL_ADC_LevelOutOfWindowCallback                  build/stm32f1xx_hal_adc.o
HAL_ADC_MspDeInit                                 build/stm32f1xx_hal_msp.o
                                                  build/stm32f1xx_hal_adc.o
HAL_ADC_MspInit                                   build/stm32f1xx_hal_msp.o
                                                  build/stm32f1xx_hal_adc.o
HAL_ADC_PollForConversion                         build/stm32f1xx_hal_adc.o
HAL_ADC_PollForEvent                              build/stm32f1xx_hal_adc.o
HAL_ADC_Start                                     build/stm32f1xx_hal_adc.o
                                                  build/ADC_R.o
                                                  build/ADC_L.o
                                                  build/stm32f1xx_it.o
HAL_ADC_Start_DMA                                 build/stm32f1xx_hal_adc.o
                                                  build/ADC_R.o
                                                  build/ADC_L.o
HAL_ADC_Start_IT                                  build/stm32f1xx_hal_adc.o
HAL_ADC_Stop                                      build/stm32f1xx_hal_adc.o
HAL_ADC_Stop_DMA                                  build/stm32f1xx_hal_adc.o
HAL_ADC_Stop_IT                                   build/stm32f1xx_hal_adc.o
HAL_DBGMCU_DisableDBGSleepMode                    build/stm32f1xx_hal.o
HAL_DBGMCU_DisableDBGStandbyMode                  build/stm32f1xx_hal.o
HAL_DBGMCU_DisableDBGStopMode                     build/stm32f1xx_hal.o
HAL_DBGMCU_EnableDBGSleepMode                     build/stm32f1xx_hal.o
HAL_DBGMCU_EnableDBGStandbyMode                   build/stm32f1xx_hal.o
HAL_DBGMCU_EnableDBGStopMode                      build/stm32f1xx_hal.o
HAL_DMA_Abort                                     build/stm32f1xx_hal_dma.o
                                                  build/stm32f1xx_hal_uart.o
                                                  build/stm32f1xx_hal_adc_ex.o
                                                  build/stm32f1xx_hal_tim.o
                                                  build/stm32f1xx_hal_adc.o
HAL_DMA_DeInit                                    build/stm32f1xx_hal_dma.o
                                                  build/stm32f1xx_hal_msp.o
HAL_DMA_GetError                                  build/stm32f1xx_hal_dma.o
HAL_DMA_GetState                                  build/stm32f1xx_hal_dma.o
HAL_DMA_IRQHandler                                build/stm32f1xx_hal_dma.o
                                                  build/stm32f1xx_it.o
HAL_DMA_Init                                      build/stm32f1xx_hal_dma.o
                                                  build/stm32f1xx_hal_msp.o
HAL_DMA_PollForTransfer                           build/stm32f1xx_hal_dma.o
HAL_DMA_Start                                     build/stm32f1xx_hal_dma.o
HAL_DMA_Start_IT                                  build/stm32f1xx_hal_dma.o
                                                  build/stm32f1xx_hal_i2c.o
                                                  build/stm32f1xx_hal_uart.o
                                                  build/stm32f1xx_hal_adc_ex.o
                                                  build/stm32f1xx_hal_tim.o
                                                  build/stm32f1xx_hal_tim_ex.o
                                                  build/stm32f1xx_hal_adc.o
HAL_DeInit                                        build/stm32f1xx_hal.o
HAL_Delay                                         build/stm32f1xx_hal.o
                                                  build/hd44780.o
                                                  build/main.o
                                                  build/application.o
                                                  build/i2c.o
                                                  build/varie.o
                                                  build/stm32f1xx_hal_rcc.o
HAL_FLASHEx_Erase                                 build/stm32f1xx_hal_flash_ex.o
                                                  build/eeprom.o
HAL_FLASHEx_Erase_IT                              build/stm32f1xx_hal_flash_ex.o
HAL_FLASHEx_OBErase                               build/stm32f1xx_hal_flash_ex.o
HAL_FLASHEx_OBGetConfig                           build/stm32f1xx_hal_flash_ex.o
HAL_FLASHEx_OBGetUserData                         build/stm32f1xx_hal_flash_ex.o
HAL_FLASHEx_OBProgram                             build/stm32f1xx_hal_flash_ex.o
HAL_FLASH_EndOfOperationCallback                  build/stm32f1xx_hal_flash.o
HAL_FLASH_GetError                                build/stm32f1xx_hal_flash.o
HAL_FLASH_IRQHandler                              build/stm32f1xx_hal_flash.o
HAL_FLASH_Lock                                    build/stm32f1xx_hal_flash.o
HAL_FLASH_OB_Launch                               build/stm32f1xx_hal_flash.o
HAL_FLASH_OB_Lock                                 build/stm32f1xx_hal_flash.o
HAL_FLASH_OB_Unlock                               build/stm32f1xx_hal_flash.o
HAL_FLASH_OperationErrorCallback                  build/stm32f1xx_hal_flash.o
HAL_FLASH_Program                                 build/stm32f1xx_hal_flash.o
                                                  build/eeprom.o
HAL_FLASH_Program_IT                              build/stm32f1xx_hal_flash.o
HAL_FLASH_Unlock                                  build/stm32f1xx_hal_flash.o
HAL_GPIOEx_ConfigEventout                         build/stm32f1xx_hal_gpio_ex.o
HAL_GPIOEx_DisableEventout                        build/stm32f1xx_hal_gpio_ex.o
HAL_GPIOEx_EnableEventout                         build/stm32f1xx_hal_gpio_ex.o
HAL_GPIO_DeInit                                   build/stm32f1xx_hal_gpio.o
                                                  build/stm32f1xx_hal_msp.o
HAL_GPIO_EXTI_Callback                            build/stm32f1xx_hal_gpio.o
HAL_GPIO_EXTI_IRQHandler                          build/stm32f1xx_hal_gpio.o
HAL_GPIO_Init                                     build/stm32f1xx_hal_gpio.o
                                                  build/stm32f1xx_hal_msp.o
                                                  build/varie.o
                                                  build/motor_R.o
                                                  build/motor_L.o
                                                  build/stm32f1xx_hal_rcc.o
HAL_GPIO_LockPin                                  build/stm32f1xx_hal_gpio.o
HAL_GPIO_ReadPin                                  build/stm32f1xx_hal_gpio.o
                                                  build/varie.o
HAL_GPIO_TogglePin                                build/stm32f1xx_hal_gpio.o
HAL_GPIO_WritePin                                 build/stm32f1xx_hal_gpio.o
                                                  build/varie.o
HAL_GetDEVID                                      build/stm32f1xx_hal.o
HAL_GetHalVersion                                 build/stm32f1xx_hal.o
HAL_GetREVID                                      build/stm32f1xx_hal.o
HAL_GetTick                                       build/stm32f1xx_hal.o
                                                  build/hd44780.o
                                                  build/main.o
                                                  build/application.o
                                                  build/i2c.o
                                                  build/pid.o
                                                  build/stm32f1xx_hal_iwdg.o
                                                  build/stm32f1xx_hal_flash.o
                                                  build/stm32f1xx_hal_rcc_ex.o
                                                  build/stm32f1xx_hal_i2c.o
                                                  build/stm32f1xx_hal_uart.o
                                                  build/stm32f1xx_hal_dma.o
                                                  build/stm32f1xx_hal_rcc.o
                                                  build/stm32f1xx_hal_adc_ex.o
                                                  build/stm32f1xx_hal_adc.o
HAL_HalfDuplex_EnableReceiver                     build/stm32f1xx_hal_uart.o
HAL_HalfDuplex_EnableTransmitter                  build/stm32f1xx_hal_uart.o
HAL_HalfDuplex_Init                               build/stm32f1xx_hal_uart.o
HAL_I2C_DeInit                                    build/stm32f1xx_hal_i2c.o
                                                  build/pcf8574.o
HAL_I2C_ER_IRQHandler                             build/stm32f1xx_hal_i2c.o
                                                  build/stm32f1xx_it.o
HAL_I2C_EV_IRQHandler                             build/stm32f1xx_hal_i2c.o
                                                  build/stm32f1xx_it.o
HAL_I2C_ErrorCallback                             build/i2c.o
                                                  build/stm32f1xx_hal_i2c.o
HAL_I2C_GetError                                  build/stm32f1xx_hal_i2c.o
HAL_I2C_GetState                                  build/stm32f1xx_hal_i2c.o
                                                  build/i2c.o
HAL_I2C_Init                                      build/stm32f1xx_hal_i2c.o
                                                  build/i2c.o
HAL_I2C_IsDeviceReady                             build/stm32f1xx_hal_i2c.o
HAL_I2C_MasterRxCpltCallback                      build/i2c.o
                                                  build/stm32f1xx_hal_i2c.o
HAL_I2C_MasterTxCpltCallback                      build/i2c.o
                                                  build/stm32f1xx_hal_i2c.o
HAL_I2C_Master_Receive                            build/stm32f1xx_hal_i2c.o
                                                  build/pcf8574.o
HAL_I2C_Master_Receive_DMA                        build/stm32f1xx_hal_i2c.o
                                                  build/i2c.o
HAL_I2C_Master_Receive_IT                         build/stm32f1xx_hal_i2c.o
HAL_I2C_Master_Transmit                           build/stm32f1xx_hal_i2c.o
                                                  build/pcf8574.o
HAL_I2C_Master_Transmit_DMA                       build/stm32f1xx_hal_i2c.o
                                                  build/i2c.o
HAL_I2C_Master_Transmit_IT                        build/stm32f1xx_hal_i2c.o
HAL_I2C_MemRxCpltCallback                         build/stm32f1xx_hal_i2c.o
HAL_I2C_MemTxCpltCallback                         build/stm32f1xx_hal_i2c.o
HAL_I2C_Mem_Read                                  build/stm32f1xx_hal_i2c.o
HAL_I2C_Mem_Read_DMA                              build/stm32f1xx_hal_i2c.o
HAL_I2C_Mem_Read_IT                               build/stm32f1xx_hal_i2c.o
HAL_I2C_Mem_Write                                 build/stm32f1xx_hal_i2c.o
HAL_I2C_Mem_Write_DMA                             build/stm32f1xx_hal_i2c.o
HAL_I2C_Mem_Write_IT                              build/stm32f1xx_hal_i2c.o
HAL_I2C_MspDeInit                                 build/stm32f1xx_hal_msp.o
                                                  build/stm32f1xx_hal_i2c.o
HAL_I2C_MspInit                                   build/stm32f1xx_hal_msp.o
                                                  build/stm32f1xx_hal_i2c.o
HAL_I2C_SlaveRxCpltCallback                       build/stm32f1xx_hal_i2c.o
HAL_I2C_SlaveTxCpltCallback                       build/stm32f1xx_hal_i2c.o
HAL_I2C_Slave_Receive                             build/stm32f1xx_hal_i2c.o
HAL_I2C_Slave_Receive_DMA                         build/stm32f1xx_hal_i2c.o
HAL_I2C_Slave_Receive_IT                          build/stm32f1xx_hal_i2c.o
HAL_I2C_Slave_Transmit                            build/stm32f1xx_hal_i2c.o
HAL_I2C_Slave_Transmit_DMA                        build/stm32f1xx_hal_i2c.o
HAL_I2C_Slave_Transmit_IT                         build/stm32f1xx_hal_i2c.o
HAL_IWDG_GetState                                 build/stm32f1xx_hal_iwdg.o
HAL_IWDG_Init                                     build/stm32f1xx_hal_iwdg.o
                                                  build/main.o
HAL_IWDG_MspInit                                  build/stm32f1xx_hal_iwdg.o
HAL_IWDG_Refresh                                  build/stm32f1xx_hal_iwdg.o
                                                  build/main.o
                                                  build/application.o
                                                  build/varie.o
HAL_IWDG_Start                                    build/stm32f1xx_hal_iwdg.o
                                                  build/main.o
HAL_IncTick                                       build/stm32f1xx_hal.o
                                                  build/stm32f1xx_it.o
HAL_Init                                          build/stm32f1xx_hal.o
                                                  build/main.o
HAL_InitTick                                      build/stm32f1xx_hal.o
                                                  build/stm32f1xx_hal_rcc.o
HAL_LIN_Init                                      build/stm32f1xx_hal_uart.o
HAL_LIN_SendBreak                                 build/stm32f1xx_hal_uart.o
HAL_MspDeInit                                     build/stm32f1xx_hal.o
HAL_MspInit                                       build/stm32f1xx_hal_msp.o
                                                  build/stm32f1xx_hal.o
HAL_MultiProcessor_EnterMuteMode                  build/stm32f1xx_hal_uart.o
HAL_MultiProcessor_ExitMuteMode                   build/stm32f1xx_hal_uart.o
HAL_MultiProcessor_Init                           build/stm32f1xx_hal_uart.o
HAL_NVIC_ClearPendingIRQ                          build/stm32f1xx_hal_cortex.o
HAL_NVIC_DisableIRQ                               build/stm32f1xx_hal_cortex.o
                                                  build/stm32f1xx_hal_msp.o
                                                  build/i2c.o
                                                  build/motor_R.o
                                                  build/motor_L.o
                                                  build/ADC_R.o
                                                  build/ADC_L.o
HAL_NVIC_EnableIRQ                                build/stm32f1xx_hal_cortex.o
                                                  build/stm32f1xx_hal_msp.o
                                                  build/i2c.o
                                                  build/varie.o
                                                  build/uart.o
                                                  build/motor_R.o
                                                  build/motor_L.o
                                                  build/pid.o
                                                  build/ADC_R.o
                                                  build/ADC_L.o
HAL_NVIC_GetActive                                build/stm32f1xx_hal_cortex.o
HAL_NVIC_GetPendingIRQ                            build/stm32f1xx_hal_cortex.o
HAL_NVIC_GetPriority                              build/stm32f1xx_hal_cortex.o
HAL_NVIC_GetPriorityGrouping                      build/stm32f1xx_hal_cortex.o
HAL_NVIC_SetPendingIRQ                            build/stm32f1xx_hal_cortex.o
HAL_NVIC_SetPriority                              build/stm32f1xx_hal_cortex.o
                                                  build/stm32f1xx_hal_msp.o
                                                  build/main.o
                                                  build/i2c.o
                                                  build/varie.o
                                                  build/uart.o
                                                  build/motor_R.o
                                                  build/motor_L.o
                                                  build/pid.o
                                                  build/ADC_R.o
                                                  build/ADC_L.o
                                                  build/stm32f1xx_hal.o
HAL_NVIC_SetPriorityGrouping                      build/stm32f1xx_hal_cortex.o
                                                  build/stm32f1xx_hal_msp.o
                                                  build/stm32f1xx_hal.o
HAL_NVIC_SystemReset                              build/stm32f1xx_hal_cortex.o
                                                  build/stm32f1xx_hal_flash.o
HAL_PWR_ConfigPVD                                 build/stm32f1xx_hal_pwr.o
HAL_PWR_DeInit                                    build/stm32f1xx_hal_pwr.o
HAL_PWR_DisableBkUpAccess                         build/stm32f1xx_hal_pwr.o
HAL_PWR_DisablePVD                                build/stm32f1xx_hal_pwr.o
HAL_PWR_DisableSEVOnPend                          build/stm32f1xx_hal_pwr.o
HAL_PWR_DisableSleepOnExit                        build/stm32f1xx_hal_pwr.o
HAL_PWR_DisableWakeUpPin                          build/stm32f1xx_hal_pwr.o
HAL_PWR_EnableBkUpAccess                          build/stm32f1xx_hal_pwr.o
HAL_PWR_EnablePVD                                 build/stm32f1xx_hal_pwr.o
HAL_PWR_EnableSEVOnPend                           build/stm32f1xx_hal_pwr.o
HAL_PWR_EnableSleepOnExit                         build/stm32f1xx_hal_pwr.o
HAL_PWR_EnableWakeUpPin                           build/stm32f1xx_hal_pwr.o
HAL_PWR_EnterSLEEPMode                            build/stm32f1xx_hal_pwr.o
HAL_PWR_EnterSTANDBYMode                          build/stm32f1xx_hal_pwr.o
HAL_PWR_EnterSTOPMode                             build/stm32f1xx_hal_pwr.o
HAL_PWR_PVDCallback                               build/stm32f1xx_hal_pwr.o
HAL_PWR_PVD_IRQHandler                            build/stm32f1xx_hal_pwr.o
HAL_RCCEx_GetPeriphCLKConfig                      build/stm32f1xx_hal_rcc_ex.o
HAL_RCCEx_GetPeriphCLKFreq                        build/stm32f1xx_hal_rcc_ex.o
                                                  build/stm32f1xx_hal_adc_ex.o
                                                  build/stm32f1xx_hal_adc.o
HAL_RCCEx_PeriphCLKConfig                         build/stm32f1xx_hal_rcc_ex.o
                                                  build/main.o
HAL_RCC_CSSCallback                               build/stm32f1xx_hal_rcc.o
HAL_RCC_ClockConfig                               build/stm32f1xx_hal_rcc.o
                                                  build/main.o
HAL_RCC_DeInit                                    build/stm32f1xx_hal_rcc.o
HAL_RCC_DisableCSS                                build/stm32f1xx_hal_rcc.o
HAL_RCC_EnableCSS                                 build/stm32f1xx_hal_rcc.o
HAL_RCC_GetClockConfig                            build/stm32f1xx_hal_rcc.o
HAL_RCC_GetHCLKFreq                               build/stm32f1xx_hal_rcc.o
                                                  build/main.o
                                                  build/stm32f1xx_hal.o
HAL_RCC_GetOscConfig                              build/stm32f1xx_hal_rcc.o
HAL_RCC_GetPCLK1Freq                              build/stm32f1xx_hal_rcc.o
                                                  build/stm32f1xx_hal_i2c.o
                                                  build/stm32f1xx_hal_uart.o
HAL_RCC_GetPCLK2Freq                              build/stm32f1xx_hal_rcc.o
                                                  build/stm32f1xx_hal_rcc_ex.o
                                                  build/stm32f1xx_hal_uart.o
HAL_RCC_GetSysClockFreq                           build/stm32f1xx_hal_rcc.o
                                                  build/stm32f1xx_hal_rcc_ex.o
HAL_RCC_MCOConfig                                 build/stm32f1xx_hal_rcc.o
HAL_RCC_NMI_IRQHandler                            build/stm32f1xx_hal_rcc.o
HAL_RCC_OscConfig                                 build/stm32f1xx_hal_rcc.o
                                                  build/main.o
HAL_ResumeTick                                    build/stm32f1xx_hal.o
HAL_SYSTICK_CLKSourceConfig                       build/stm32f1xx_hal_cortex.o
                                                  build/main.o
HAL_SYSTICK_Callback                              build/stm32f1xx_hal_cortex.o
HAL_SYSTICK_Config                                build/stm32f1xx_hal_cortex.o
                                                  build/main.o
                                                  build/stm32f1xx_hal.o
HAL_SYSTICK_IRQHandler                            build/stm32f1xx_hal_cortex.o
                                                  build/stm32f1xx_it.o
HAL_SuspendTick                                   build/stm32f1xx_hal.o
HAL_TIMEx_BreakCallback                           build/stm32f1xx_hal_tim_ex.o
                                                  build/stm32f1xx_hal_tim.o
HAL_TIMEx_CommutationCallback                     build/stm32f1xx_hal_tim_ex.o
                                                  build/stm32f1xx_hal_tim.o
HAL_TIMEx_ConfigBreakDeadTime                     build/stm32f1xx_hal_tim_ex.o
                                                  build/motor_R.o
                                                  build/motor_L.o
HAL_TIMEx_ConfigCommutationEvent                  build/stm32f1xx_hal_tim_ex.o
HAL_TIMEx_ConfigCommutationEvent_DMA              build/stm32f1xx_hal_tim_ex.o
HAL_TIMEx_ConfigCommutationEvent_IT               build/stm32f1xx_hal_tim_ex.o
HAL_TIMEx_HallSensor_DeInit                       build/stm32f1xx_hal_tim_ex.o
HAL_TIMEx_HallSensor_GetState                     build/stm32f1xx_hal_tim_ex.o
HAL_TIMEx_HallSensor_Init                         build/stm32f1xx_hal_tim_ex.o
HAL_TIMEx_HallSensor_MspDeInit                    build/stm32f1xx_hal_tim_ex.o
HAL_TIMEx_HallSensor_MspInit                      build/stm32f1xx_hal_tim_ex.o
HAL_TIMEx_HallSensor_Start                        build/stm32f1xx_hal_tim_ex.o
HAL_TIMEx_HallSensor_Start_DMA                    build/stm32f1xx_hal_tim_ex.o
HAL_TIMEx_HallSensor_Start_IT                     build/stm32f1xx_hal_tim_ex.o
HAL_TIMEx_HallSensor_Stop                         build/stm32f1xx_hal_tim_ex.o
HAL_TIMEx_HallSensor_Stop_DMA                     build/stm32f1xx_hal_tim_ex.o
HAL_TIMEx_HallSensor_Stop_IT                      build/stm32f1xx_hal_tim_ex.o
HAL_TIMEx_MasterConfigSynchronization             build/stm32f1xx_hal_tim_ex.o
                                                  build/pid.o
HAL_TIMEx_OCN_Start                               build/stm32f1xx_hal_tim_ex.o
HAL_TIMEx_OCN_Start_DMA                           build/stm32f1xx_hal_tim_ex.o
HAL_TIMEx_OCN_Start_IT                            build/stm32f1xx_hal_tim_ex.o
HAL_TIMEx_OCN_Stop                                build/stm32f1xx_hal_tim_ex.o
HAL_TIMEx_OCN_Stop_DMA                            build/stm32f1xx_hal_tim_ex.o
HAL_TIMEx_OCN_Stop_IT                             build/stm32f1xx_hal_tim_ex.o
HAL_TIMEx_OnePulseN_Start                         build/stm32f1xx_hal_tim_ex.o
HAL_TIMEx_OnePulseN_Start_IT                      build/stm32f1xx_hal_tim_ex.o
HAL_TIMEx_OnePulseN_Stop                          build/stm32f1xx_hal_tim_ex.o
HAL_TIMEx_OnePulseN_Stop_IT                       build/stm32f1xx_hal_tim_ex.o
HAL_TIMEx_PWMN_Start                              build/stm32f1xx_hal_tim_ex.o
HAL_TIMEx_PWMN_Start_DMA                          build/stm32f1xx_hal_tim_ex.o
HAL_TIMEx_PWMN_Start_IT                           build/stm32f1xx_hal_tim_ex.o
HAL_TIMEx_PWMN_Stop                               build/stm32f1xx_hal_tim_ex.o
HAL_TIMEx_PWMN_Stop_DMA                           build/stm32f1xx_hal_tim_ex.o
HAL_TIMEx_PWMN_Stop_IT                            build/stm32f1xx_hal_tim_ex.o
HAL_TIM_Base_DeInit                               build/stm32f1xx_hal_tim.o
HAL_TIM_Base_GetState                             build/stm32f1xx_hal_tim.o
HAL_TIM_Base_Init                                 build/stm32f1xx_hal_tim.o
                                                  build/delay.o
                                                  build/pid.o
HAL_TIM_Base_MspDeInit                            build/stm32f1xx_hal_tim.o
HAL_TIM_Base_MspInit                              build/stm32f1xx_hal_tim.o
HAL_TIM_Base_Start                                build/stm32f1xx_hal_tim.o
                                                  build/delay.o
HAL_TIM_Base_Start_DMA                            build/stm32f1xx_hal_tim.o
HAL_TIM_Base_Start_IT                             build/stm32f1xx_hal_tim.o
                                                  build/pid.o
HAL_TIM_Base_Stop                                 build/stm32f1xx_hal_tim.o
                                                  build/delay.o
HAL_TIM_Base_Stop_DMA                             build/stm32f1xx_hal_tim.o
HAL_TIM_Base_Stop_IT                              build/stm32f1xx_hal_tim.o
HAL_TIM_ConfigClockSource                         build/stm32f1xx_hal_tim.o
                                                  build/pid.o
HAL_TIM_ConfigOCrefClear                          build/stm32f1xx_hal_tim.o
HAL_TIM_ConfigTI1Input                            build/stm32f1xx_hal_tim.o
HAL_TIM_DMABurst_ReadStart                        build/stm32f1xx_hal_tim.o
HAL_TIM_DMABurst_ReadStop                         build/stm32f1xx_hal_tim.o
HAL_TIM_DMABurst_WriteStart                       build/stm32f1xx_hal_tim.o
HAL_TIM_DMABurst_WriteStop                        build/stm32f1xx_hal_tim.o
HAL_TIM_Encoder_DeInit                            build/stm32f1xx_hal_tim.o
HAL_TIM_Encoder_GetState                          build/stm32f1xx_hal_tim.o
HAL_TIM_Encoder_Init                              build/stm32f1xx_hal_tim.o
HAL_TIM_Encoder_MspDeInit                         build/stm32f1xx_hal_tim.o
HAL_TIM_Encoder_MspInit                           build/stm32f1xx_hal_tim.o
HAL_TIM_Encoder_Start                             build/stm32f1xx_hal_tim.o
HAL_TIM_Encoder_Start_DMA                         build/stm32f1xx_hal_tim.o
HAL_TIM_Encoder_Start_IT                          build/stm32f1xx_hal_tim.o
HAL_TIM_Encoder_Stop                              build/stm32f1xx_hal_tim.o
HAL_TIM_Encoder_Stop_DMA                          build/stm32f1xx_hal_tim.o
HAL_TIM_Encoder_Stop_IT                           build/stm32f1xx_hal_tim.o
HAL_TIM_ErrorCallback                             build/stm32f1xx_hal_tim.o
HAL_TIM_GenerateEvent                             build/stm32f1xx_hal_tim.o
HAL_TIM_IC_CaptureCallback                        build/stm32f1xx_hal_tim.o
HAL_TIM_IC_ConfigChannel                          build/stm32f1xx_hal_tim.o
HAL_TIM_IC_DeInit                                 build/stm32f1xx_hal_tim.o
HAL_TIM_IC_GetState                               build/stm32f1xx_hal_tim.o
HAL_TIM_IC_Init                                   build/stm32f1xx_hal_tim.o
HAL_TIM_IC_MspDeInit                              build/stm32f1xx_hal_tim.o
HAL_TIM_IC_MspInit                                build/stm32f1xx_hal_tim.o
HAL_TIM_IC_Start                                  build/stm32f1xx_hal_tim.o
HAL_TIM_IC_Start_DMA                              build/stm32f1xx_hal_tim.o
HAL_TIM_IC_Start_IT                               build/stm32f1xx_hal_tim.o
HAL_TIM_IC_Stop                                   build/stm32f1xx_hal_tim.o
HAL_TIM_IC_Stop_DMA                               build/stm32f1xx_hal_tim.o
HAL_TIM_IC_Stop_IT                                build/stm32f1xx_hal_tim.o
HAL_TIM_IRQHandler                                build/stm32f1xx_hal_tim.o
                                                  build/stm32f1xx_it.o
HAL_TIM_OC_ConfigChannel                          build/stm32f1xx_hal_tim.o
HAL_TIM_OC_DeInit                                 build/stm32f1xx_hal_tim.o
HAL_TIM_OC_DelayElapsedCallback                   build/stm32f1xx_hal_tim.o
HAL_TIM_OC_GetState                               build/stm32f1xx_hal_tim.o
HAL_TIM_OC_Init                                   build/stm32f1xx_hal_tim.o
HAL_TIM_OC_MspDeInit                              build/stm32f1xx_hal_tim.o
HAL_TIM_OC_MspInit                                build/stm32f1xx_hal_tim.o
HAL_TIM_OC_Start                                  build/stm32f1xx_hal_tim.o
HAL_TIM_OC_Start_DMA                              build/stm32f1xx_hal_tim.o
HAL_TIM_OC_Start_IT                               build/stm32f1xx_hal_tim.o
HAL_TIM_OC_Stop                                   build/stm32f1xx_hal_tim.o
HAL_TIM_OC_Stop_DMA                               build/stm32f1xx_hal_tim.o
HAL_TIM_OC_Stop_IT                                build/stm32f1xx_hal_tim.o
HAL_TIM_OnePulse_ConfigChannel                    build/stm32f1xx_hal_tim.o
HAL_TIM_OnePulse_DeInit                           build/stm32f1xx_hal_tim.o
HAL_TIM_OnePulse_GetState                         build/stm32f1xx_hal_tim.o
HAL_TIM_OnePulse_Init                             build/stm32f1xx_hal_tim.o
HAL_TIM_OnePulse_MspDeInit                        build/stm32f1xx_hal_tim.o
HAL_TIM_OnePulse_MspInit                          build/stm32f1xx_hal_tim.o
HAL_TIM_OnePulse_Start                            build/stm32f1xx_hal_tim.o
HAL_TIM_OnePulse_Start_IT                         build/stm32f1xx_hal_tim.o
HAL_TIM_OnePulse_Stop                             build/stm32f1xx_hal_tim.o
HAL_TIM_OnePulse_Stop_IT                          build/stm32f1xx_hal_tim.o
HAL_TIM_PWM_ConfigChannel                         build/stm32f1xx_hal_tim.o
                                                  build/motor_R.o
                                                  build/motor_L.o
HAL_TIM_PWM_DeInit                                build/stm32f1xx_hal_tim.o
HAL_TIM_PWM_GetState                              build/stm32f1xx_hal_tim.o
HAL_TIM_PWM_Init                                  build/stm32f1xx_hal_tim.o
                                                  build/motor_R.o
                                                  build/motor_L.o
HAL_TIM_PWM_MspDeInit                             build/stm32f1xx_hal_msp.o
                                                  build/stm32f1xx_hal_tim.o
HAL_TIM_PWM_MspInit                               build/stm32f1xx_hal_tim.o
HAL_TIM_PWM_PulseFinishedCallback                 build/stm32f1xx_hal_tim.o
HAL_TIM_PWM_Start                                 build/stm32f1xx_hal_tim.o
                                                  build/motor_R.o
                                                  build/motor_L.o
HAL_TIM_PWM_Start_DMA                             build/stm32f1xx_hal_tim.o
HAL_TIM_PWM_Start_IT                              build/stm32f1xx_hal_tim.o
                                                  build/motor_R.o
                                                  build/motor_L.o
HAL_TIM_PWM_Stop                                  build/stm32f1xx_hal_tim.o
HAL_TIM_PWM_Stop_DMA                              build/stm32f1xx_hal_tim.o
HAL_TIM_PWM_Stop_IT                               build/stm32f1xx_hal_tim.o
HAL_TIM_PeriodElapsedCallback                     build/stm32f1xx_hal_tim.o
HAL_TIM_ReadCapturedValue                         build/stm32f1xx_hal_tim.o
HAL_TIM_SlaveConfigSynchronization                build/stm32f1xx_hal_tim.o
HAL_TIM_SlaveConfigSynchronization_IT             build/stm32f1xx_hal_tim.o
HAL_TIM_TriggerCallback                           build/stm32f1xx_hal_tim.o
HAL_UART_DMAPause                                 build/stm32f1xx_hal_uart.o
HAL_UART_DMAResume                                build/stm32f1xx_hal_uart.o
HAL_UART_DMAStop                                  build/stm32f1xx_hal_uart.o
HAL_UART_DeInit                                   build/stm32f1xx_hal_uart.o
HAL_UART_ErrorCallback                            build/stm32f1xx_hal_uart.o
HAL_UART_GetError                                 build/stm32f1xx_hal_uart.o
HAL_UART_GetState                                 build/stm32f1xx_hal_uart.o
HAL_UART_IRQHandler                               build/stm32f1xx_hal_uart.o
HAL_UART_Init                                     build/stm32f1xx_hal_uart.o
                                                  build/uart.o
HAL_UART_MspDeInit                                build/stm32f1xx_hal_msp.o
                                                  build/stm32f1xx_hal_uart.o
HAL_UART_MspInit                                  build/stm32f1xx_hal_msp.o
                                                  build/stm32f1xx_hal_uart.o
HAL_UART_Receive                                  build/stm32f1xx_hal_uart.o
HAL_UART_Receive_DMA                              build/stm32f1xx_hal_uart.o
HAL_UART_Receive_IT                               build/stm32f1xx_hal_uart.o
HAL_UART_RxCpltCallback                           build/uart.o
                                                  build/stm32f1xx_hal_uart.o
HAL_UART_RxHalfCpltCallback                       build/stm32f1xx_hal_uart.o
HAL_UART_Transmit                                 build/stm32f1xx_hal_uart.o
HAL_UART_Transmit_DMA                             build/stm32f1xx_hal_uart.o
                                                  build/uart.o
HAL_UART_Transmit_IT                              build/stm32f1xx_hal_uart.o
HAL_UART_TxCpltCallback                           build/uart.o
                                                  build/stm32f1xx_hal_uart.o
HAL_UART_TxHalfCpltCallback                       build/stm32f1xx_hal_uart.o
HardFault_Handler                                 build/stm32f1xx_it.o
I2C1_ER_IRQHandler                                build/stm32f1xx_it.o
I2C1_EV_IRQHandler                                build/stm32f1xx_it.o
I2C2_ER_IRQHandler                                build/stm32f1xx_it.o
I2C2_EV_IRQHandler                                build/startup_stm32f103xe.o
IS_Button                                         build/varie.o
                                                  build/main.o
IS_Charge                                         build/varie.o
                                                  build/application.o
IS_Charge_init                                    build/varie.o
                                                  build/main.o
LCD_ClearDisplay                                  build/hd44780.o
                                                  build/main.o
LCD_CursorOFF                                     build/hd44780.o
LCD_CursorON                                      build/hd44780.o
LCD_CustomChar                                    build/hd44780.o
LCD_DisplayOFF                                    build/hd44780.o
LCD_DisplayON                                     build/hd44780.o
LCD_EntryModeSet                                  build/hd44780.o
LCD_GetBusyFlag                                   build/hd44780.o
LCD_I2C_WriteOut                                  build/hd44780.o
LCD_Init                                          build/hd44780.o
                                                  build/main.o
LCD_SetLocation                                   build/hd44780.o
                                                  build/main.o
LCD_ShiftCursor                                   build/hd44780.o
LCD_ShiftDisplay                                  build/hd44780.o
LCD_StateLEDControl                               build/hd44780.o
LCD_StateWriteBit                                 build/hd44780.o
LCD_WaitForBusyFlag                               build/hd44780.o
LCD_WriteCMD                                      build/hd44780.o
LCD_WriteDATA                                     build/hd44780.o
LCD_WriteFloat                                    build/hd44780.o
                                                  build/main.o
LCD_WriteNumber                                   build/hd44780.o
LCD_WriteString                                   build/hd44780.o
                                                  build/main.o
LCD_WriteToDataBus                                build/hd44780.o
LCDerrorFlag                                      build/hd44780.o
                                                  build/main.o
Led_Set                                           build/varie.o
                                                  build/main.o
                                                  build/application.o
                                                  build/stm32f1xx_it.o
Led_init                                          build/varie.o
                                                  build/main.o
MX_I2C2_Init                                      build/i2c.o
                                                  build/main.o
MX_TIM1_Init                                      build/motor_R.o
MX_TIM8_Init                                      build/motor_L.o
MX_USART3_UART_Init                               build/uart.o
                                                  build/telemetry.o
MemManage_Handler                                 build/stm32f1xx_it.o
MotorL_init                                       build/motor_L.o
                                                  build/main.o
MotorL_pwm                                        build/motor_L.o
                                                  build/main.o
                                                  build/application.o
MotorL_start                                      build/motor_L.o
                                                  build/main.o
                                                  build/application.o
MotorL_stop                                       build/motor_L.o
                                                  build/main.o
                                                  build/application.o
                                                  build/stm32f1xx_it.o
MotorR_init                                       build/motor_R.o
                                                  build/main.o
MotorR_pwm                                        build/motor_R.o
                                                  build/main.o
                                                  build/application.o
MotorR_start                                      build/motor_R.o
                                                  build/main.o
                                                  build/application.o
MotorR_stop                                       build/motor_R.o
                                                  build/main.o
                                                  build/application.o
                                                  build/stm32f1xx_it.o
NMI_Handler                                       build/stm32f1xx_it.o
PCF8574_DeInit                                    build/pcf8574.o
PCF8574_Init                                      build/pcf8574.o
                                                  build/hd44780.o
PCF8574_Read                                      build/pcf8574.o
                                                  build/hd44780.o
PCF8574_Type0Pins                                 build/hd44780.o
PCF8574_Write                                     build/pcf8574.o
                                                  build/hd44780.o
PID_L_task                                        build/pid.o
PID_R_task                                        build/pid.o
PID_init                                          build/pid.o
PID_set_L_costant                                 build/pid.o
PID_set_R_costant                                 build/pid.o
PPM_ISR_Callback                                  build/main.o
                                                  build/stm32f1xx_it.o
PVD_IRQHandler                                    build/startup_stm32f103xe.o
PWM_L_ISR_Callback                                build/motor_L.o
                                                  build/stm32f1xx_it.o
PWM_R_ISR_Callback                                build/motor_R.o
                                                  build/stm32f1xx_it.o
PendSV_Handler                                    build/stm32f1xx_it.o
Power_Set                                         build/varie.o
                                                  build/main.o
RCC_IRQHandler                                    build/startup_stm32f103xe.o
RTC_Alarm_IRQHandler                              build/startup_stm32f103xe.o
RTC_IRQHandler                                    build/startup_stm32f103xe.o
Reset_Handler                                     build/startup_stm32f103xe.o
SDIO_IRQHandler                                   build/startup_stm32f103xe.o
SPI1_IRQHandler                                   build/startup_stm32f103xe.o
SPI2_IRQHandler                                   build/startup_stm32f103xe.o
SPI3_IRQHandler                                   build/startup_stm32f103xe.o
SVC_Handler                                       build/stm32f1xx_it.o
SysTick_Handler                                   build/stm32f1xx_it.o
SystemClock_Config                                build/main.o
SystemCoreClock                                   build/system_stm32f1xx.o
                                                  build/delay.o
                                                  build/motor_R.o
                                                  build/motor_L.o
                                                  build/stm32f1xx_hal_rcc.o
                                                  build/stm32f1xx_hal_adc_ex.o
                                                  build/stm32f1xx_hal_adc.o
SystemCoreClockUpdate                             build/system_stm32f1xx.o
SystemInit                                        build/system_stm32f1xx.o
                                                  build/startup_stm32f103xe.o
TAMPER_IRQHandler                                 build/startup_stm32f103xe.o
TASK_BATTERY_LOW_VOLTAGE                          build/application.o
TIM1_BRK_IRQHandler                               build/startup_stm32f103xe.o
TIM1_CC_IRQHandler                                build/stm32f1xx_it.o
TIM1_TRG_COM_IRQHandler                           build/startup_stm32f103xe.o
TIM1_UP_IRQHandler                                build/startup_stm32f103xe.o
TIM2_IRQHandler                                   build/stm32f1xx_it.o
TIM3_IRQHandler                                   build/stm32f1xx_it.o
TIM4_IRQHandler                                   build/startup_stm32f103xe.o
TIM5_IRQHandler                                   build/startup_stm32f103xe.o
TIM6_IRQHandler                                   build/startup_stm32f103xe.o
TIM7_IRQHandler                                   build/startup_stm32f103xe.o
TIM8_BRK_IRQHandler                               build/startup_stm32f103xe.o
TIM8_CC_IRQHandler                                build/stm32f1xx_it.o
TIM8_TRG_COM_IRQHandler                           build/startup_stm32f103xe.o
TIM8_UP_IRQHandler                                build/startup_stm32f103xe.o
TIMEx_DMACommutationCplt                          build/stm32f1xx_hal_tim_ex.o
                                                  build/stm32f1xx_hal_tim.o
TIM_Base_SetConfig                                build/stm32f1xx_hal_tim.o
                                                  build/stm32f1xx_hal_tim_ex.o
TIM_CCxChannelCmd                                 build/stm32f1xx_hal_tim.o
                                                  build/stm32f1xx_hal_tim_ex.o
TIM_DMACaptureCplt                                build/stm32f1xx_hal_tim.o
                                                  build/stm32f1xx_hal_tim_ex.o
TIM_DMADelayPulseCplt                             build/stm32f1xx_hal_tim.o
                                                  build/stm32f1xx_hal_tim_ex.o
TIM_DMAError                                      build/stm32f1xx_hal_tim.o
                                                  build/stm32f1xx_hal_tim_ex.o
TIM_OC2_SetConfig                                 build/stm32f1xx_hal_tim.o
                                                  build/stm32f1xx_hal_tim_ex.o
TIM_TI1_SetConfig                                 build/stm32f1xx_hal_tim.o
                                                  build/stm32f1xx_hal_tim_ex.o
Telemetry_init                                    build/telemetry.o
Tim3PID                                           build/pid.o
                                                  build/stm32f1xx_it.o
TimHandle                                         build/delay.o
Timer_init                                        build/varie.o
                                                  build/main.o
UART4_IRQHandler                                  build/startup_stm32f103xe.o
UART5_IRQHandler                                  build/startup_stm32f103xe.o
USART1_IRQHandler                                 build/startup_stm32f103xe.o
USART2_IRQHandler                                 build/startup_stm32f103xe.o
USART3_IRQHandler                                 build/startup_stm32f103xe.o
USBWakeUp_IRQHandler                              build/startup_stm32f103xe.o
USB_HP_CAN1_TX_IRQHandler                         build/startup_stm32f103xe.o
USB_LP_CAN1_RX0_IRQHandler                        build/startup_stm32f103xe.o
Uart3_IS_RX_available                             build/uart.o
Uart3_IS_TX_free                                  build/uart.o
Uart3_TX                                          build/uart.o
UsageFault_Handler                                build/stm32f1xx_it.o
VarDataTab                                        build/main.o
VarValue                                          build/main.o
VirtAddVarTab                                     build/main.o
                                                  build/eeprom.o
WAIT_CHARGE_FINISH                                build/application.o
WWDG_IRQHandler                                   build/startup_stm32f103xe.o
WiiNunchuck_INIT                                  build/i2c.o
WiiNunchuck_TASK                                  build/i2c.o
                                                  build/application.o
_Jv_RegisterClasses                               /home/niklas/gcc-arm-none-eabi-5_4-2016q3/bin/../lib/gcc/arm-none-eabi/5.4.1/armv7-m/crtbegin.o
__adddf3                                          /home/niklas/gcc-arm-none-eabi-5_4-2016q3/bin/../lib/gcc/arm-none-eabi/5.4.1/armv7-m/libgcc.a(_arm_addsubdf3.o)
__addsf3                                          /home/niklas/gcc-arm-none-eabi-5_4-2016q3/bin/../lib/gcc/arm-none-eabi/5.4.1/armv7-m/libgcc.a(_arm_addsubsf3.o)
__aeabi_cdcmpeq                                   /home/niklas/gcc-arm-none-eabi-5_4-2016q3/bin/../lib/gcc/arm-none-eabi/5.4.1/armv7-m/libgcc.a(_arm_cmpdf2.o)
__aeabi_cdcmple                                   /home/niklas/gcc-arm-none-eabi-5_4-2016q3/bin/../lib/gcc/arm-none-eabi/5.4.1/armv7-m/libgcc.a(_arm_cmpdf2.o)
__aeabi_cdrcmple                                  /home/niklas/gcc-arm-none-eabi-5_4-2016q3/bin/../lib/gcc/arm-none-eabi/5.4.1/armv7-m/libgcc.a(_arm_cmpdf2.o)
__aeabi_cfcmpeq                                   /home/niklas/gcc-arm-none-eabi-5_4-2016q3/bin/../lib/gcc/arm-none-eabi/5.4.1/armv7-m/libgcc.a(_arm_cmpsf2.o)
__aeabi_cfcmple                                   /home/niklas/gcc-arm-none-eabi-5_4-2016q3/bin/../lib/gcc/arm-none-eabi/5.4.1/armv7-m/libgcc.a(_arm_cmpsf2.o)
__aeabi_cfrcmple                                  /home/niklas/gcc-arm-none-eabi-5_4-2016q3/bin/../lib/gcc/arm-none-eabi/5.4.1/armv7-m/libgcc.a(_arm_cmpsf2.o)
__aeabi_d2f                                       /home/niklas/gcc-arm-none-eabi-5_4-2016q3/bin/../lib/gcc/arm-none-eabi/5.4.1/armv7-m/libgcc.a(_arm_truncdfsf2.o)
                                                  build/main.o
                                                  build/application.o
                                                  build/ADC_R.o
                                                  build/ADC_L.o
__aeabi_d2iz                                      /home/niklas/gcc-arm-none-eabi-5_4-2016q3/bin/../lib/gcc/arm-none-eabi/5.4.1/armv7-m/libgcc.a(_arm_fixdfsi.o)
                                                  build/hd44780.o
                                                  build/main.o
                                                  build/application.o
__aeabi_d2uiz                                     /home/niklas/gcc-arm-none-eabi-5_4-2016q3/bin/../lib/gcc/arm-none-eabi/5.4.1/armv7-m/libgcc.a(_arm_fixunsdfsi.o)
                                                  build/hd44780.o
                                                  build/application.o
__aeabi_dadd                                      /home/niklas/gcc-arm-none-eabi-5_4-2016q3/bin/../lib/gcc/arm-none-eabi/5.4.1/armv7-m/libgcc.a(_arm_addsubdf3.o)
                                                  build/hd44780.o
                                                  build/main.o
                                                  build/application.o
__aeabi_dcmpeq                                    /home/niklas/gcc-arm-none-eabi-5_4-2016q3/bin/../lib/gcc/arm-none-eabi/5.4.1/armv7-m/libgcc.a(_arm_cmpdf2.o)
__aeabi_dcmpge                                    /home/niklas/gcc-arm-none-eabi-5_4-2016q3/bin/../lib/gcc/arm-none-eabi/5.4.1/armv7-m/libgcc.a(_arm_cmpdf2.o)
__aeabi_dcmpgt                                    /home/niklas/gcc-arm-none-eabi-5_4-2016q3/bin/../lib/gcc/arm-none-eabi/5.4.1/armv7-m/libgcc.a(_arm_cmpdf2.o)
                                                  build/main.o
                                                  build/application.o
__aeabi_dcmple                                    /home/niklas/gcc-arm-none-eabi-5_4-2016q3/bin/../lib/gcc/arm-none-eabi/5.4.1/armv7-m/libgcc.a(_arm_cmpdf2.o)
__aeabi_dcmplt                                    /home/niklas/gcc-arm-none-eabi-5_4-2016q3/bin/../lib/gcc/arm-none-eabi/5.4.1/armv7-m/libgcc.a(_arm_cmpdf2.o)
                                                  build/hd44780.o
                                                  build/main.o
__aeabi_ddiv                                      /home/niklas/gcc-arm-none-eabi-5_4-2016q3/bin/../lib/gcc/arm-none-eabi/5.4.1/armv7-m/libgcc.a(_arm_muldivdf3.o)
                                                  build/hd44780.o
                                                  build/main.o
                                                  build/application.o
__aeabi_dmul                                      /home/niklas/gcc-arm-none-eabi-5_4-2016q3/bin/../lib/gcc/arm-none-eabi/5.4.1/armv7-m/libgcc.a(_arm_muldivdf3.o)
                                                  build/hd44780.o
                                                  build/main.o
                                                  build/application.o
                                                  build/ADC_R.o
                                                  build/ADC_L.o
__aeabi_drsub                                     /home/niklas/gcc-arm-none-eabi-5_4-2016q3/bin/../lib/gcc/arm-none-eabi/5.4.1/armv7-m/libgcc.a(_arm_addsubdf3.o)
__aeabi_dsub                                      /home/niklas/gcc-arm-none-eabi-5_4-2016q3/bin/../lib/gcc/arm-none-eabi/5.4.1/armv7-m/libgcc.a(_arm_addsubdf3.o)
                                                  build/hd44780.o
                                                  build/main.o
                                                  build/application.o
__aeabi_f2d                                       /home/niklas/gcc-arm-none-eabi-5_4-2016q3/bin/../lib/gcc/arm-none-eabi/5.4.1/armv7-m/libgcc.a(_arm_addsubdf3.o)
                                                  build/main.o
                                                  build/application.o
                                                  build/ADC_R.o
__aeabi_f2iz                                      /home/niklas/gcc-arm-none-eabi-5_4-2016q3/bin/../lib/gcc/arm-none-eabi/5.4.1/armv7-m/libgcc.a(_arm_fixsfsi.o)
                                                  build/main.o
                                                  build/application.o
                                                  build/telemetry.o
                                                  build/pid.o
__aeabi_fadd                                      /home/niklas/gcc-arm-none-eabi-5_4-2016q3/bin/../lib/gcc/arm-none-eabi/5.4.1/armv7-m/libgcc.a(_arm_addsubsf3.o)
                                                  build/application.o
                                                  build/pid.o
__aeabi_fcmpeq                                    /home/niklas/gcc-arm-none-eabi-5_4-2016q3/bin/../lib/gcc/arm-none-eabi/5.4.1/armv7-m/libgcc.a(_arm_cmpsf2.o)
__aeabi_fcmpge                                    /home/niklas/gcc-arm-none-eabi-5_4-2016q3/bin/../lib/gcc/arm-none-eabi/5.4.1/armv7-m/libgcc.a(_arm_cmpsf2.o)
                                                  build/application.o
__aeabi_fcmpgt                                    /home/niklas/gcc-arm-none-eabi-5_4-2016q3/bin/../lib/gcc/arm-none-eabi/5.4.1/armv7-m/libgcc.a(_arm_cmpsf2.o)
                                                  build/application.o
                                                  build/pid.o
__aeabi_fcmple                                    /home/niklas/gcc-arm-none-eabi-5_4-2016q3/bin/../lib/gcc/arm-none-eabi/5.4.1/armv7-m/libgcc.a(_arm_cmpsf2.o)
                                                  build/application.o
__aeabi_fcmplt                                    /home/niklas/gcc-arm-none-eabi-5_4-2016q3/bin/../lib/gcc/arm-none-eabi/5.4.1/armv7-m/libgcc.a(_arm_cmpsf2.o)
                                                  build/main.o
                                                  build/application.o
                                                  build/pid.o
__aeabi_fdiv                                      /home/niklas/gcc-arm-none-eabi-5_4-2016q3/bin/../lib/gcc/arm-none-eabi/5.4.1/armv7-m/libgcc.a(_arm_muldivsf3.o)
                                                  build/application.o
__aeabi_fmul                                      /home/niklas/gcc-arm-none-eabi-5_4-2016q3/bin/../lib/gcc/arm-none-eabi/5.4.1/armv7-m/libgcc.a(_arm_muldivsf3.o)
                                                  build/main.o
                                                  build/application.o
                                                  build/telemetry.o
                                                  build/pid.o
__aeabi_frsub                                     /home/niklas/gcc-arm-none-eabi-5_4-2016q3/bin/../lib/gcc/arm-none-eabi/5.4.1/armv7-m/libgcc.a(_arm_addsubsf3.o)
__aeabi_fsub                                      /home/niklas/gcc-arm-none-eabi-5_4-2016q3/bin/../lib/gcc/arm-none-eabi/5.4.1/armv7-m/libgcc.a(_arm_addsubsf3.o)
                                                  build/application.o
                                                  build/pid.o
__aeabi_i2d                                       /home/niklas/gcc-arm-none-eabi-5_4-2016q3/bin/../lib/gcc/arm-none-eabi/5.4.1/armv7-m/libgcc.a(_arm_addsubdf3.o)
                                                  build/hd44780.o
                                                  build/main.o
                                                  build/application.o
                                                  build/ADC_R.o
                                                  build/ADC_L.o
__aeabi_i2f                                       /home/niklas/gcc-arm-none-eabi-5_4-2016q3/bin/../lib/gcc/arm-none-eabi/5.4.1/armv7-m/libgcc.a(_arm_addsubsf3.o)
                                                  build/main.o
                                                  build/application.o
                                                  build/pid.o
__aeabi_l2d                                       /home/niklas/gcc-arm-none-eabi-5_4-2016q3/bin/../lib/gcc/arm-none-eabi/5.4.1/armv7-m/libgcc.a(_arm_addsubdf3.o)
__aeabi_l2f                                       /home/niklas/gcc-arm-none-eabi-5_4-2016q3/bin/../lib/gcc/arm-none-eabi/5.4.1/armv7-m/libgcc.a(_arm_addsubsf3.o)
__aeabi_ui2d                                      /home/niklas/gcc-arm-none-eabi-5_4-2016q3/bin/../lib/gcc/arm-none-eabi/5.4.1/armv7-m/libgcc.a(_arm_addsubdf3.o)
                                                  build/hd44780.o
                                                  build/application.o
__aeabi_ui2f                                      /home/niklas/gcc-arm-none-eabi-5_4-2016q3/bin/../lib/gcc/arm-none-eabi/5.4.1/armv7-m/libgcc.a(_arm_addsubsf3.o)
                                                  build/application.o
                                                  build/ADC_R.o
__aeabi_ul2d                                      /home/niklas/gcc-arm-none-eabi-5_4-2016q3/bin/../lib/gcc/arm-none-eabi/5.4.1/armv7-m/libgcc.a(_arm_addsubdf3.o)
__aeabi_ul2f                                      /home/niklas/gcc-arm-none-eabi-5_4-2016q3/bin/../lib/gcc/arm-none-eabi/5.4.1/armv7-m/libgcc.a(_arm_addsubsf3.o)
__bss_end__                                       /home/niklas/gcc-arm-none-eabi-5_4-2016q3/bin/../lib/gcc/arm-none-eabi/5.4.1/../../../../arm-none-eabi/lib/armv7-m/crt0.o
__bss_start__                                     /home/niklas/gcc-arm-none-eabi-5_4-2016q3/bin/../lib/gcc/arm-none-eabi/5.4.1/../../../../arm-none-eabi/lib/armv7-m/crt0.o
__call_exitprocs                                  /home/niklas/gcc-arm-none-eabi-5_4-2016q3/bin/../lib/gcc/arm-none-eabi/5.4.1/../../../../arm-none-eabi/lib/armv7-m/libc_nano.a(lib_a-exit.o)
__cmpdf2                                          /home/niklas/gcc-arm-none-eabi-5_4-2016q3/bin/../lib/gcc/arm-none-eabi/5.4.1/armv7-m/libgcc.a(_arm_cmpdf2.o)
__cmpsf2                                          /home/niklas/gcc-arm-none-eabi-5_4-2016q3/bin/../lib/gcc/arm-none-eabi/5.4.1/armv7-m/libgcc.a(_arm_cmpsf2.o)
__deregister_frame_info                           /home/niklas/gcc-arm-none-eabi-5_4-2016q3/bin/../lib/gcc/arm-none-eabi/5.4.1/armv7-m/crtbegin.o
__divdf3                                          /home/niklas/gcc-arm-none-eabi-5_4-2016q3/bin/../lib/gcc/arm-none-eabi/5.4.1/armv7-m/libgcc.a(_arm_muldivdf3.o)
__divsf3                                          /home/niklas/gcc-arm-none-eabi-5_4-2016q3/bin/../lib/gcc/arm-none-eabi/5.4.1/armv7-m/libgcc.a(_arm_muldivsf3.o)
__dso_handle                                      /home/niklas/gcc-arm-none-eabi-5_4-2016q3/bin/../lib/gcc/arm-none-eabi/5.4.1/armv7-m/crtbegin.o
__eqdf2                                           /home/niklas/gcc-arm-none-eabi-5_4-2016q3/bin/../lib/gcc/arm-none-eabi/5.4.1/armv7-m/libgcc.a(_arm_cmpdf2.o)
__eqsf2                                           /home/niklas/gcc-arm-none-eabi-5_4-2016q3/bin/../lib/gcc/arm-none-eabi/5.4.1/armv7-m/libgcc.a(_arm_cmpsf2.o)
__extendsfdf2                                     /home/niklas/gcc-arm-none-eabi-5_4-2016q3/bin/../lib/gcc/arm-none-eabi/5.4.1/armv7-m/libgcc.a(_arm_addsubdf3.o)
__fixdfsi                                         /home/niklas/gcc-arm-none-eabi-5_4-2016q3/bin/../lib/gcc/arm-none-eabi/5.4.1/armv7-m/libgcc.a(_arm_fixdfsi.o)
__fixsfsi                                         /home/niklas/gcc-arm-none-eabi-5_4-2016q3/bin/../lib/gcc/arm-none-eabi/5.4.1/armv7-m/libgcc.a(_arm_fixsfsi.o)
__fixunsdfsi                                      /home/niklas/gcc-arm-none-eabi-5_4-2016q3/bin/../lib/gcc/arm-none-eabi/5.4.1/armv7-m/libgcc.a(_arm_fixunsdfsi.o)
__floatdidf                                       /home/niklas/gcc-arm-none-eabi-5_4-2016q3/bin/../lib/gcc/arm-none-eabi/5.4.1/armv7-m/libgcc.a(_arm_addsubdf3.o)
__floatdisf                                       /home/niklas/gcc-arm-none-eabi-5_4-2016q3/bin/../lib/gcc/arm-none-eabi/5.4.1/armv7-m/libgcc.a(_arm_addsubsf3.o)
__floatsidf                                       /home/niklas/gcc-arm-none-eabi-5_4-2016q3/bin/../lib/gcc/arm-none-eabi/5.4.1/armv7-m/libgcc.a(_arm_addsubdf3.o)
__floatsisf                                       /home/niklas/gcc-arm-none-eabi-5_4-2016q3/bin/../lib/gcc/arm-none-eabi/5.4.1/armv7-m/libgcc.a(_arm_addsubsf3.o)
__floatundidf                                     /home/niklas/gcc-arm-none-eabi-5_4-2016q3/bin/../lib/gcc/arm-none-eabi/5.4.1/armv7-m/libgcc.a(_arm_addsubdf3.o)
__floatundisf                                     /home/niklas/gcc-arm-none-eabi-5_4-2016q3/bin/../lib/gcc/arm-none-eabi/5.4.1/armv7-m/libgcc.a(_arm_addsubsf3.o)
__floatunsidf                                     /home/niklas/gcc-arm-none-eabi-5_4-2016q3/bin/../lib/gcc/arm-none-eabi/5.4.1/armv7-m/libgcc.a(_arm_addsubdf3.o)
__floatunsisf                                     /home/niklas/gcc-arm-none-eabi-5_4-2016q3/bin/../lib/gcc/arm-none-eabi/5.4.1/armv7-m/libgcc.a(_arm_addsubsf3.o)
__gedf2                                           /home/niklas/gcc-arm-none-eabi-5_4-2016q3/bin/../lib/gcc/arm-none-eabi/5.4.1/armv7-m/libgcc.a(_arm_cmpdf2.o)
__gesf2                                           /home/niklas/gcc-arm-none-eabi-5_4-2016q3/bin/../lib/gcc/arm-none-eabi/5.4.1/armv7-m/libgcc.a(_arm_cmpsf2.o)
__gtdf2                                           /home/niklas/gcc-arm-none-eabi-5_4-2016q3/bin/../lib/gcc/arm-none-eabi/5.4.1/armv7-m/libgcc.a(_arm_cmpdf2.o)
__gtsf2                                           /home/niklas/gcc-arm-none-eabi-5_4-2016q3/bin/../lib/gcc/arm-none-eabi/5.4.1/armv7-m/libgcc.a(_arm_cmpsf2.o)
__init_array_end                                  /home/niklas/gcc-arm-none-eabi-5_4-2016q3/bin/../lib/gcc/arm-none-eabi/5.4.1/../../../../arm-none-eabi/lib/armv7-m/libc_nano.a(lib_a-init.o)
__init_array_start                                /home/niklas/gcc-arm-none-eabi-5_4-2016q3/bin/../lib/gcc/arm-none-eabi/5.4.1/../../../../arm-none-eabi/lib/armv7-m/libc_nano.a(lib_a-init.o)
__ledf2                                           /home/niklas/gcc-arm-none-eabi-5_4-2016q3/bin/../lib/gcc/arm-none-eabi/5.4.1/armv7-m/libgcc.a(_arm_cmpdf2.o)
__lesf2                                           /home/niklas/gcc-arm-none-eabi-5_4-2016q3/bin/../lib/gcc/arm-none-eabi/5.4.1/armv7-m/libgcc.a(_arm_cmpsf2.o)
__libc_fini_array                                 /home/niklas/gcc-arm-none-eabi-5_4-2016q3/bin/../lib/gcc/arm-none-eabi/5.4.1/../../../../arm-none-eabi/lib/armv7-m/crt0.o
__libc_init_array                                 /home/niklas/gcc-arm-none-eabi-5_4-2016q3/bin/../lib/gcc/arm-none-eabi/5.4.1/../../../../arm-none-eabi/lib/armv7-m/libc_nano.a(lib_a-init.o)
                                                  build/startup_stm32f103xe.o
                                                  /home/niklas/gcc-arm-none-eabi-5_4-2016q3/bin/../lib/gcc/arm-none-eabi/5.4.1/../../../../arm-none-eabi/lib/armv7-m/crt0.o
__ltdf2                                           /home/niklas/gcc-arm-none-eabi-5_4-2016q3/bin/../lib/gcc/arm-none-eabi/5.4.1/armv7-m/libgcc.a(_arm_cmpdf2.o)
__ltsf2                                           /home/niklas/gcc-arm-none-eabi-5_4-2016q3/bin/../lib/gcc/arm-none-eabi/5.4.1/armv7-m/libgcc.a(_arm_cmpsf2.o)
__muldf3                                          /home/niklas/gcc-arm-none-eabi-5_4-2016q3/bin/../lib/gcc/arm-none-eabi/5.4.1/armv7-m/libgcc.a(_arm_muldivdf3.o)
__mulsf3                                          /home/niklas/gcc-arm-none-eabi-5_4-2016q3/bin/../lib/gcc/arm-none-eabi/5.4.1/armv7-m/libgcc.a(_arm_muldivsf3.o)
__nedf2                                           /home/niklas/gcc-arm-none-eabi-5_4-2016q3/bin/../lib/gcc/arm-none-eabi/5.4.1/armv7-m/libgcc.a(_arm_cmpdf2.o)
__nesf2                                           /home/niklas/gcc-arm-none-eabi-5_4-2016q3/bin/../lib/gcc/arm-none-eabi/5.4.1/armv7-m/libgcc.a(_arm_cmpsf2.o)
__preinit_array_end                               /home/niklas/gcc-arm-none-eabi-5_4-2016q3/bin/../lib/gcc/arm-none-eabi/5.4.1/../../../../arm-none-eabi/lib/armv7-m/libc_nano.a(lib_a-init.o)
__preinit_array_start                             /home/niklas/gcc-arm-none-eabi-5_4-2016q3/bin/../lib/gcc/arm-none-eabi/5.4.1/../../../../arm-none-eabi/lib/armv7-m/libc_nano.a(lib_a-init.o)
__register_frame_info                             /home/niklas/gcc-arm-none-eabi-5_4-2016q3/bin/../lib/gcc/arm-none-eabi/5.4.1/armv7-m/crtbegin.o
__sf_fake_stderr                                  /home/niklas/gcc-arm-none-eabi-5_4-2016q3/bin/../lib/gcc/arm-none-eabi/5.4.1/../../../../arm-none-eabi/lib/armv7-m/libc_nano.a(lib_a-impure.o)
__sf_fake_stdin                                   /home/niklas/gcc-arm-none-eabi-5_4-2016q3/bin/../lib/gcc/arm-none-eabi/5.4.1/../../../../arm-none-eabi/lib/armv7-m/libc_nano.a(lib_a-impure.o)
__sf_fake_stdout                                  /home/niklas/gcc-arm-none-eabi-5_4-2016q3/bin/../lib/gcc/arm-none-eabi/5.4.1/../../../../arm-none-eabi/lib/armv7-m/libc_nano.a(lib_a-impure.o)
__stack                                           /home/niklas/gcc-arm-none-eabi-5_4-2016q3/bin/../lib/gcc/arm-none-eabi/5.4.1/../../../../arm-none-eabi/lib/armv7-m/crt0.o
__subdf3                                          /home/niklas/gcc-arm-none-eabi-5_4-2016q3/bin/../lib/gcc/arm-none-eabi/5.4.1/armv7-m/libgcc.a(_arm_addsubdf3.o)
__subsf3                                          /home/niklas/gcc-arm-none-eabi-5_4-2016q3/bin/../lib/gcc/arm-none-eabi/5.4.1/armv7-m/libgcc.a(_arm_addsubsf3.o)
__truncdfsf2                                      /home/niklas/gcc-arm-none-eabi-5_4-2016q3/bin/../lib/gcc/arm-none-eabi/5.4.1/armv7-m/libgcc.a(_arm_truncdfsf2.o)
_ebss                                             build/startup_stm32f103xe.o
_edata                                            build/startup_stm32f103xe.o
_estack                                           build/startup_stm32f103xe.o
_exit                                             /home/niklas/gcc-arm-none-eabi-5_4-2016q3/bin/../lib/gcc/arm-none-eabi/5.4.1/../../../../arm-none-eabi/lib/armv7-m/libnosys.a(_exit.o)
                                                  /home/niklas/gcc-arm-none-eabi-5_4-2016q3/bin/../lib/gcc/arm-none-eabi/5.4.1/../../../../arm-none-eabi/lib/armv7-m/libc_nano.a(lib_a-exit.o)
_fini                                             /home/niklas/gcc-arm-none-eabi-5_4-2016q3/bin/../lib/gcc/arm-none-eabi/5.4.1/armv7-m/crti.o
_global_impure_ptr                                /home/niklas/gcc-arm-none-eabi-5_4-2016q3/bin/../lib/gcc/arm-none-eabi/5.4.1/../../../../arm-none-eabi/lib/armv7-m/libc_nano.a(lib_a-impure.o)
                                                  /home/niklas/gcc-arm-none-eabi-5_4-2016q3/bin/../lib/gcc/arm-none-eabi/5.4.1/../../../../arm-none-eabi/lib/armv7-m/libc_nano.a(lib_a-exit.o)
_impure_ptr                                       /home/niklas/gcc-arm-none-eabi-5_4-2016q3/bin/../lib/gcc/arm-none-eabi/5.4.1/../../../../arm-none-eabi/lib/armv7-m/libc_nano.a(lib_a-impure.o)
_init                                             /home/niklas/gcc-arm-none-eabi-5_4-2016q3/bin/../lib/gcc/arm-none-eabi/5.4.1/armv7-m/crti.o
                                                  /home/niklas/gcc-arm-none-eabi-5_4-2016q3/bin/../lib/gcc/arm-none-eabi/5.4.1/../../../../arm-none-eabi/lib/armv7-m/libc_nano.a(lib_a-init.o)
_init_ms                                          build/delay.o
_init_us                                          build/delay.o
                                                  build/main.o
_mainCRTStartup                                   /home/niklas/gcc-arm-none-eabi-5_4-2016q3/bin/../lib/gcc/arm-none-eabi/5.4.1/../../../../arm-none-eabi/lib/armv7-m/crt0.o
_sbss                                             build/startup_stm32f103xe.o
_sdata                                            build/startup_stm32f103xe.o
_sidata                                           build/startup_stm32f103xe.o
_start                                            /home/niklas/gcc-arm-none-eabi-5_4-2016q3/bin/../lib/gcc/arm-none-eabi/5.4.1/../../../../arm-none-eabi/lib/armv7-m/crt0.o
_stop_timer                                       build/delay.o
                                                  build/main.o
accellerationX                                    build/application.o
accellerationXHARD                                build/application.o
accellerationY                                    build/application.o
accellerationYHARD                                build/application.o
accelleration_XY_Reset                            build/application.o
adc_Ldati                                         build/ADC_L.o
adc_Rdati                                         build/ADC_R.o
app                                               build/application.o
applcation_TASK                                   build/application.o
applcation_init                                   build/application.o
                                                  build/main.o
atexit                                            /home/niklas/gcc-arm-none-eabi-5_4-2016q3/bin/../lib/gcc/arm-none-eabi/5.4.1/../../../../arm-none-eabi/lib/armv7-m/crt0.o
battery_dati                                      build/application.o
buffer                                            build/ADC_R.o
captured_value                                    build/main.o
commandsequence                                   build/telemetry.o
counterTemp                                       build/main.o
counterTempTT                                     build/main.o
data_ready                                        build/main.o
exit                                              /home/niklas/gcc-arm-none-eabi-5_4-2016q3/bin/../lib/gcc/arm-none-eabi/5.4.1/../../../../arm-none-eabi/lib/armv7-m/libc_nano.a(lib_a-exit.o)
                                                  /home/niklas/gcc-arm-none-eabi-5_4-2016q3/bin/../lib/gcc/arm-none-eabi/5.4.1/../../../../arm-none-eabi/lib/armv7-m/crt0.o
g_pfnVectors                                      build/startup_stm32f103xe.o
getMotorCurrentL                                  build/application.o
                                                  build/main.o
getMotorCurrentR                                  build/application.o
                                                  build/main.o
getMotorL                                         build/telemetry.o
getMotorR                                         build/telemetry.o
get_powerMax                                      build/application.o
                                                  build/main.o
go_motor                                          build/application.o
hadc1                                             build/ADC_R.o
                                                  build/stm32f1xx_it.o
hadc3                                             build/ADC_L.o
                                                  build/stm32f1xx_it.o
hardware_init_hook                                /home/niklas/gcc-arm-none-eabi-5_4-2016q3/bin/../lib/gcc/arm-none-eabi/5.4.1/../../../../arm-none-eabi/lib/armv7-m/crt0.o
hdma_adc1                                         build/ADC_R.o
                                                  build/stm32f1xx_hal_msp.o
                                                  build/stm32f1xx_it.o
hdma_adc3                                         build/ADC_L.o
                                                  build/stm32f1xx_hal_msp.o
                                                  build/stm32f1xx_it.o
hdma_i2c2_rx                                      build/i2c.o
                                                  build/stm32f1xx_hal_msp.o
hdma_i2c2_tx                                      build/i2c.o
                                                  build/stm32f1xx_hal_msp.o
hdma_usart3_rx                                    build/uart.o
                                                  build/stm32f1xx_hal_msp.o
                                                  build/stm32f1xx_it.o
hdma_usart3_tx                                    build/uart.o
                                                  build/stm32f1xx_hal_msp.o
                                                  build/stm32f1xx_it.o
hi2c2                                             build/i2c.o
                                                  build/main.o
                                                  build/stm32f1xx_it.o
hiwdg                                             build/main.o
                                                  build/application.o
                                                  build/varie.o
htim1                                             build/motor_R.o
                                                  build/stm32f1xx_it.o
htim2                                             build/main.o
                                                  build/stm32f1xx_it.o
htim8                                             build/motor_L.o
                                                  build/stm32f1xx_it.o
huart3                                            build/uart.o
lcd                                               build/main.o
leftToTransfer                                    build/telemetry.o
mL_AHigh__OFF                                     build/motor_L.o
mL_AHigh__ON                                      build/motor_L.o
mL_BHigh__OFF                                     build/motor_L.o
mL_BHigh__ON                                      build/motor_L.o
mL_BLDCMotor                                      build/motor_L.o
mL_CHigh__OFF                                     build/motor_L.o
mL_CHigh__ON                                      build/motor_L.o
mL_HallSensor_init                                build/motor_L.o
mL_Low_CH1_OFF                                    build/motor_L.o
mL_Low_CH1_ON                                     build/motor_L.o
mL_Low_CH2_OFF                                    build/motor_L.o
mL_Low_CH2_ON                                     build/motor_L.o
mL_Low_CH3_OFF                                    build/motor_L.o
mL_Low_CH3_ON                                     build/motor_L.o
mL_PWM_Set_Ch1                                    build/motor_L.o
mL_PWM_Set_Ch2                                    build/motor_L.o
mL_PWM_Set_Ch3                                    build/motor_L.o
mL_PWM_Set_ChALL                                  build/motor_L.o
mR_AHigh__OFF                                     build/motor_R.o
mR_AHigh__ON                                      build/motor_R.o
mR_BHigh__OFF                                     build/motor_R.o
mR_BHigh__ON                                      build/motor_R.o
mR_BLDCMotor                                      build/motor_R.o
mR_CHigh__OFF                                     build/motor_R.o
mR_CHigh__ON                                      build/motor_R.o
mR_HallSensor_init                                build/motor_R.o
mR_Low_CH1_OFF                                    build/motor_R.o
mR_Low_CH1_ON                                     build/motor_R.o
mR_Low_CH2_OFF                                    build/motor_R.o
mR_Low_CH2_ON                                     build/motor_R.o
mR_Low_CH3_OFF                                    build/motor_R.o
mR_Low_CH3_ON                                     build/motor_R.o
mR_PWM_Set_Ch1                                    build/motor_R.o
mR_PWM_Set_Ch2                                    build/motor_R.o
mR_PWM_Set_Ch3                                    build/motor_R.o
mR_PWM_Set_ChALL                                  build/motor_R.o
main                                              build/main.o
                                                  build/startup_stm32f103xe.o
                                                  /home/niklas/gcc-arm-none-eabi-5_4-2016q3/bin/../lib/gcc/arm-none-eabi/5.4.1/../../../../arm-none-eabi/lib/armv7-m/crt0.o
memset                                            /home/niklas/gcc-arm-none-eabi-5_4-2016q3/bin/../lib/gcc/arm-none-eabi/5.4.1/../../../../arm-none-eabi/lib/armv7-m/libc_nano.a(lib_a-memset.o)
                                                  /home/niklas/gcc-arm-none-eabi-5_4-2016q3/bin/../lib/gcc/arm-none-eabi/5.4.1/../../../../arm-none-eabi/lib/armv7-m/crt0.o
motorL                                            build/motor_L.o
                                                  build/main.o
motorR                                            build/motor_R.o
                                                  build/main.o
normalize_x                                       build/application.o
normalize_y                                       build/application.o
nunchuk_decode_byte                               build/i2c.o
pFlash                                            build/stm32f1xx_hal_flash.o
                                                  build/stm32f1xx_hal_flash_ex.o
pid_L_                                            build/pid.o
pid_L_Dati                                        build/pid.o
pid_R_                                            build/pid.o
pid_R_Dati                                        build/pid.o
pid_update_I32                                    build/pid.o
pid_update_f                                      build/pid.o
pointer                                           build/main.o
rc_data                                           build/main.o
rx_count                                          build/main.o
saveConfig                                        build/main.o
saveValue                                         build/main.o
scale_x                                           build/application.o
scale_y                                           build/application.o
software_init_hook                                /home/niklas/gcc-arm-none-eabi-5_4-2016q3/bin/../lib/gcc/arm-none-eabi/5.4.1/../../../../arm-none-eabi/lib/armv7-m/crt0.o
speed                                             build/main.o
strlen                                            /home/niklas/gcc-arm-none-eabi-5_4-2016q3/bin/../lib/gcc/arm-none-eabi/5.4.1/../../../../arm-none-eabi/lib/armv7-m/libc_nano.a(lib_a-strlen.o)
                                                  build/uart.o
telemetry                                         build/telemetry.o
                                                  build/application.o
testVelR                                          build/pid.o
timeout                                           build/main.o
uartDati                                          build/uart.o
wii_JOYdati                                       build/i2c.o
                                                  build/application.o
