ARM GAS  /tmp/ccoRs8RI.s 			page 1


   1              		.syntax unified
   2              		.cpu cortex-m3
   3              		.fpu softvfp
   4              		.eabi_attribute 20, 1
   5              		.eabi_attribute 21, 1
   6              		.eabi_attribute 23, 3
   7              		.eabi_attribute 24, 1
   8              		.eabi_attribute 25, 1
   9              		.eabi_attribute 26, 1
  10              		.eabi_attribute 30, 1
  11              		.eabi_attribute 34, 1
  12              		.eabi_attribute 18, 4
  13              		.thumb
  14              		.syntax unified
  15              		.file	"main.c"
  16              		.text
  17              	.Ltext0:
  18              		.cfi_sections	.debug_frame
  19              		.section	.text.HAL_ADC_ConvCpltCallback,"ax",%progbits
  20              		.align	2
  21              		.global	HAL_ADC_ConvCpltCallback
  22              		.thumb
  23              		.thumb_func
  25              	HAL_ADC_ConvCpltCallback:
  26              	.LFB67:
  27              		.file 1 "./Src/main.c"
   1:./Src/main.c  **** /*                              ------ hacking hoverboard -------
   2:./Src/main.c  **** MOTOR LEFT
   3:./Src/main.c  ****             HALL_A = PB5
   4:./Src/main.c  ****             HALL_B = PB6
   5:./Src/main.c  ****             HALL_C = PB7
   6:./Src/main.c  ****             A-MOSFET_+ = PC6    [Attivo alto]
   7:./Src/main.c  ****             A-MOSFET_- = PA7    [Attivo basso]
   8:./Src/main.c  ****             B-MOSFET_+ = PC7    [Attivo alto]
   9:./Src/main.c  ****             B-MOSFET_- = PB0    [Attivo basso]
  10:./Src/main.c  ****             C-MOSFET_+ = PC8    [Attivo alto]
  11:./Src/main.c  ****             C-MOSFET_- = PB1    [Attivo basso]
  12:./Src/main.c  ****             CURRENT_SENSE_shunt = PC0 [Analog, a vuoto 1.5747V, Rshunt=0.0036525/Guadagno_OPAMP = 1
  13:./Src/main.c  ****             A-VOLTAGE_PHASE_A_BACK_EMF = PA0    [Analog]  -- {NOT USE}
  14:./Src/main.c  ****             B-VOLTAGE_PHASE_A_BACK_EMF = PC3    [Analog]  -- {NOT USE}
  15:./Src/main.c  **** 
  16:./Src/main.c  **** MOTOR RIGHT
  17:./Src/main.c  ****             HALL_A = PC10
  18:./Src/main.c  ****             HALL_B = PC11
  19:./Src/main.c  ****             HALL_C = PC12
  20:./Src/main.c  ****             A-MOSFET_+ = PA8    [Attivo alto]
  21:./Src/main.c  ****             A-MOSFET_- = PB13   [Attivo basso]
  22:./Src/main.c  ****             B-MOSFET_+ = PA9    [Attivo alto]
  23:./Src/main.c  ****             B-MOSFET_- = PB14   [Attivo basso]
  24:./Src/main.c  ****             C-MOSFET_+ = PA10   [Attivo alto]
  25:./Src/main.c  ****             C-MOSFET_- = PB15   [Attivo basso]
  26:./Src/main.c  ****             CURRENT_SENSE_shunt = PC1 [Analog, a vuoto 1.5747V, Rshunt=0.0036525/Guadagno_OPAMP = 1
  27:./Src/main.c  ****             A-VOLTAGE_PHASE_A_BACK_EMF = PC4    [Analog]  -- {NOT USE}
  28:./Src/main.c  ****             B-VOLTAGE_PHASE_A_BACK_EMF = PC5    [Analog]  -- {NOT USE}
  29:./Src/main.c  **** 
  30:./Src/main.c  **** VARIE
  31:./Src/main.c  ****             LED = PB2
ARM GAS  /tmp/ccoRs8RI.s 			page 2


  32:./Src/main.c  ****             BUZZER = PA4
  33:./Src/main.c  ****             FRONT_LEFT[connettore 4 poli] = +15V ; PA2 ; PA3 ; MASSA    -- {NOT USE}
  34:./Src/main.c  ****             FRONT_RIGHT[connettore 4 poli] = +15V ; PB10 ; PB11 ; MASSA -- {USE x JOYSTICK}
  35:./Src/main.c  ****             SWITCH = PA1                                                -- {NOT USE}
  36:./Src/main.c  ****             VBATT_MEASURE = PC2         [Analog, rapporto 956.5 ohm/29910 ohm]
  37:./Src/main.c  ****             IS_BATTERY_IN_CHARGE = PA12 [input, need pullup]
  38:./Src/main.c  ****             AUTO-RITENUTA-SWITCH = PA5 [output, mantiene attivo il tip127 che funge da interruttore
  39:./Src/main.c  ****             NOT-IDENTIFITY = PB12
  40:./Src/main.c  ****             NOT-IDENTIFITY = PA6
  41:./Src/main.c  **** 
  42:./Src/main.c  **** */
  43:./Src/main.c  **** #include "main.h"
  44:./Src/main.c  **** #include "stm32f1xx_hal.h"
  45:./Src/main.c  **** #include "motor_L.h"
  46:./Src/main.c  **** #include "motor_R.h"
  47:./Src/main.c  **** #include "varie.h"
  48:./Src/main.c  **** #include "ADC_L.h"
  49:./Src/main.c  **** #include "ADC_R.h"
  50:./Src/main.c  **** #include "delay.h"
  51:./Src/main.c  **** #include "pid.h"
  52:./Src/main.c  **** #include "application.h"
  53:./Src/main.c  **** #include "telemetry.h"
  54:./Src/main.c  **** #include <math.h>
  55:./Src/main.c  **** 
  56:./Src/main.c  **** // copied from STMBL
  57:./Src/main.c  **** #define NO 0
  58:./Src/main.c  **** #define YES 1
  59:./Src/main.c  **** #define ABS(a) (((a) < 0.0) ? -(a) : (a))
  60:./Src/main.c  **** #define LIMIT(x, lowhigh) (((x) > (lowhigh)) ? (lowhigh) : (((x) < (-lowhigh)) ? (-lowhigh) : (x)))
  61:./Src/main.c  **** #define SAT(x, lowhigh) (((x) > (lowhigh)) ? (1.0) : (((x) < (-lowhigh)) ? (-1.0) : (0.0)))
  62:./Src/main.c  **** #define SAT2(x, low, high) (((x) > (high)) ? (1.0) : (((x) < (low)) ? (-1.0) : (0.0)))
  63:./Src/main.c  **** #define STEP(from, to, step) (((from) < (to)) ? (MIN((from) + (step), (to))) : (MAX((from) - (step)
  64:./Src/main.c  **** #define DEG(a) ((a)*M_PI / 180.0)
  65:./Src/main.c  **** #define RAD(a) ((a)*180.0 / M_PI)
  66:./Src/main.c  **** #define SIGN(a) (((a) < 0.0) ? (-1.0) : (((a) > 0.0) ? (1.0) : (0.0)))
  67:./Src/main.c  **** #define CLAMP(x, low, high) (((x) > (high)) ? (high) : (((x) < (low)) ? (low) : (x)))
  68:./Src/main.c  **** #define SCALE(value, high, max) MIN(MAX(((max) - (value)) / ((max) - (high)), 0.0), 1.0)
  69:./Src/main.c  **** #define MIN(a, b) (((a) < (b)) ? (a) : (b))
  70:./Src/main.c  **** #define MAX(a, b) (((a) > (b)) ? (a) : (b))
  71:./Src/main.c  **** #define MIN3(a, b, c) MIN(a, MIN(b, c))
  72:./Src/main.c  **** #define MAX3(a, b, c) MAX(a, MAX(b, c))
  73:./Src/main.c  **** 
  74:./Src/main.c  **** #define PI 3.14159265
  75:./Src/main.c  **** 
  76:./Src/main.c  **** /* Private variables ---------------------------------------------------------*/
  77:./Src/main.c  **** 
  78:./Src/main.c  **** /* Private function prototypes -----------------------------------------------*/
  79:./Src/main.c  **** void SystemClock_Config(void);
  80:./Src/main.c  **** void Error_Handler(void);
  81:./Src/main.c  **** //extern struct PID_dati pid_R_;
  82:./Src/main.c  **** static void MX_IWDG_Init(void);
  83:./Src/main.c  **** IWDG_HandleTypeDef hiwdg;
  84:./Src/main.c  **** 
  85:./Src/main.c  **** volatile __IO int16_t speed = 0;
  86:./Src/main.c  **** extern struct TELEMETRY_dati telemetry;
  87:./Src/main.c  **** //extern struct COMMAND_data commandsequence;
  88:./Src/main.c  **** 
ARM GAS  /tmp/ccoRs8RI.s 			page 3


  89:./Src/main.c  **** //TEMP
  90:./Src/main.c  **** /*
  91:./Src/main.c  **** extern volatile __IO struct MOTOR_Rdati motorR;
  92:./Src/main.c  **** volatile __IO uint8_t temp8,temp8case,temp_MOTOR_R_START;
  93:./Src/main.c  **** volatile __IO int32_t temp_SET_SPPED;
  94:./Src/main.c  **** volatile __IO uint8_t bufferTX[100],ai2cBuffer[10];
  95:./Src/main.c  **** int32_t speed;
  96:./Src/main.c  **** */
  97:./Src/main.c  **** volatile __IO uint32_t counterTemp,counterTempTT;
  98:./Src/main.c  **** 
  99:./Src/main.c  **** int main(void)
 100:./Src/main.c  **** {
 101:./Src/main.c  ****   /* Reset of all peripherals, Initializes the Flash interface and the Systick. */
 102:./Src/main.c  ****   HAL_Init();
 103:./Src/main.c  **** 
 104:./Src/main.c  ****   /* Configure the system clock */
 105:./Src/main.c  ****   SystemClock_Config();
 106:./Src/main.c  **** 
 107:./Src/main.c  ****   MX_IWDG_Init();
 108:./Src/main.c  **** 
 109:./Src/main.c  ****   _init_us();
 110:./Src/main.c  **** 
 111:./Src/main.c  ****   //MX_I2C2_Init();
 112:./Src/main.c  ****   Telemetry_init();
 113:./Src/main.c  **** 
 114:./Src/main.c  ****  /*
 115:./Src/main.c  ****   while(1){
 116:./Src/main.c  **** 
 117:./Src/main.c  ****       Telemetry_TASK();
 118:./Src/main.c  ****       if(telemetry.dataREADY_JOYSTICK){
 119:./Src/main.c  ****           telemetry.dataREADY_JOYSTICK = 0;
 120:./Src/main.c  ****       }
 121:./Src/main.c  **** 
 122:./Src/main.c  ****   }
 123:./Src/main.c  ****   */
 124:./Src/main.c  **** 
 125:./Src/main.c  ****   Buzzer_init();
 126:./Src/main.c  ****   Led_init();
 127:./Src/main.c  ****   IS_Charge_init();
 128:./Src/main.c  **** 
 129:./Src/main.c  ****   ADC_L_init();
 130:./Src/main.c  ****   ADC_R_init();
 131:./Src/main.c  ****   MotorL_init();
 132:./Src/main.c  ****   MotorR_init();
 133:./Src/main.c  **** 
 134:./Src/main.c  ****   //PID_init(0,900); //pwm limit
 135:./Src/main.c  ****   //PID_set_L_costant(0.05,0.01,0.0);
 136:./Src/main.c  ****   //PID_set_R_costant(2.0,0.5,0.0);
 137:./Src/main.c  **** 
 138:./Src/main.c  **** //DebugPin_init();
 139:./Src/main.c  **** 
 140:./Src/main.c  ****   Led_Set(1);
 141:./Src/main.c  ****   Buzzer_OneBeep();
 142:./Src/main.c  ****   HAL_Delay(350);
 143:./Src/main.c  ****   Led_Set(0);
 144:./Src/main.c  **** 
 145:./Src/main.c  ****   applcation_init();
ARM GAS  /tmp/ccoRs8RI.s 			page 4


 146:./Src/main.c  ****   MotorR_start();
 147:./Src/main.c  ****   MotorL_start();
 148:./Src/main.c  ****   MotorR_pwm(80);
 149:./Src/main.c  **** 
 150:./Src/main.c  ****   uint32_t sinValue = 45 * 50;
 151:./Src/main.c  ****   uint8_t state = 0;
 152:./Src/main.c  ****   while(1){
 153:./Src/main.c  ****     sinValue++;
 154:./Src/main.c  ****     //int speedL = -CLAMP(getMotorR(), -200, 200);
 155:./Src/main.c  ****     //int speedR = -CLAMP(getMotorL(), -200, 200);
 156:./Src/main.c  ****     //MotorL_pwm(speedL*10);
 157:./Src/main.c  ****     //MotorR_pwm(speedR*10);
 158:./Src/main.c  ****     counterTemp = HAL_GetTick();
 159:./Src/main.c  ****     if ((sinValue) % (180 * 50) == 0) {
 160:./Src/main.c  ****       state = !state;
 161:./Src/main.c  ****       Led_Set(state);
 162:./Src/main.c  ****       //Console_Log("otter!\n\r");
 163:./Src/main.c  ****       //Buzzer_OneBeep();
 164:./Src/main.c  ****       char str[100];
 165:./Src/main.c  ****       memset(&str[0], 0, sizeof(str));
 166:./Src/main.c  ****       sprintf(str, "%i;%i\n\r", ADC_PA2(), ADC_PA3());
 167:./Src/main.c  **** 
 168:./Src/main.c  ****       Console_Log(str);
 169:./Src/main.c  ****     }
 170:./Src/main.c  **** 
 171:./Src/main.c  **** 
 172:./Src/main.c  **** 
 173:./Src/main.c  ****     //Battery_TASK();
 174:./Src/main.c  ****     //Current_Motor_TASK();
 175:./Src/main.c  ****     //sWiiNunchuck_TASK();
 176:./Src/main.c  ****     //applcation_TASK();
 177:./Src/main.c  ****     //Telemetry_TASK();
 178:./Src/main.c  **** 
 179:./Src/main.c  ****     //Batteria Scarica?
 180:./Src/main.c  ****     /*if(GET_BatteryAverage() < 31.0){
 181:./Src/main.c  ****       TASK_BATTERY_LOW_VOLTAGE();
 182:./Src/main.c  ****     }*/
 183:./Src/main.c  ****     //In Carica?
 184:./Src/main.c  ****     /*if(IS_Charge()==0){
 185:./Src/main.c  ****       WAIT_CHARGE_FINISH();
 186:./Src/main.c  ****     }*/
 187:./Src/main.c  **** 
 188:./Src/main.c  ****     HAL_IWDG_Refresh(&hiwdg);   //819mS
 189:./Src/main.c  **** 
 190:./Src/main.c  ****     counterTempTT = HAL_GetTick() - counterTemp;
 191:./Src/main.c  **** 
 192:./Src/main.c  **** 
 193:./Src/main.c  **** 
 194:./Src/main.c  ****   }
 195:./Src/main.c  **** 
 196:./Src/main.c  **** }
 197:./Src/main.c  **** 
 198:./Src/main.c  **** /** System Clock Configuration
 199:./Src/main.c  **** */
 200:./Src/main.c  **** void SystemClock_Config(void)
 201:./Src/main.c  **** {
 202:./Src/main.c  **** 
ARM GAS  /tmp/ccoRs8RI.s 			page 5


 203:./Src/main.c  ****   RCC_OscInitTypeDef RCC_OscInitStruct;
 204:./Src/main.c  ****   RCC_ClkInitTypeDef RCC_ClkInitStruct;
 205:./Src/main.c  ****   RCC_PeriphCLKInitTypeDef PeriphClkInit;
 206:./Src/main.c  **** 
 207:./Src/main.c  ****     /**Initializes the CPU, AHB and APB busses clocks
 208:./Src/main.c  ****     */
 209:./Src/main.c  ****   RCC_OscInitStruct.OscillatorType = RCC_OSCILLATORTYPE_HSI;
 210:./Src/main.c  ****   RCC_OscInitStruct.HSIState = RCC_HSI_ON;
 211:./Src/main.c  ****   RCC_OscInitStruct.HSICalibrationValue = 16;
 212:./Src/main.c  ****   RCC_OscInitStruct.PLL.PLLState = RCC_PLL_ON;
 213:./Src/main.c  ****   RCC_OscInitStruct.PLL.PLLSource = RCC_PLLSOURCE_HSI_DIV2;
 214:./Src/main.c  ****   RCC_OscInitStruct.PLL.PLLMUL = RCC_PLL_MUL16;
 215:./Src/main.c  ****   if (HAL_RCC_OscConfig(&RCC_OscInitStruct) != HAL_OK)
 216:./Src/main.c  ****   {
 217:./Src/main.c  ****     Error_Handler();
 218:./Src/main.c  ****   }
 219:./Src/main.c  **** 
 220:./Src/main.c  ****     /**Initializes the CPU, AHB and APB busses clocks
 221:./Src/main.c  ****     */
 222:./Src/main.c  ****   RCC_ClkInitStruct.ClockType = RCC_CLOCKTYPE_HCLK|RCC_CLOCKTYPE_SYSCLK
 223:./Src/main.c  ****                               |RCC_CLOCKTYPE_PCLK1|RCC_CLOCKTYPE_PCLK2;
 224:./Src/main.c  ****   RCC_ClkInitStruct.SYSCLKSource = RCC_SYSCLKSOURCE_PLLCLK;
 225:./Src/main.c  ****   RCC_ClkInitStruct.AHBCLKDivider = RCC_SYSCLK_DIV1;
 226:./Src/main.c  ****   RCC_ClkInitStruct.APB1CLKDivider = RCC_HCLK_DIV2;
 227:./Src/main.c  ****   RCC_ClkInitStruct.APB2CLKDivider = RCC_HCLK_DIV1;
 228:./Src/main.c  **** 
 229:./Src/main.c  ****   if (HAL_RCC_ClockConfig(&RCC_ClkInitStruct, FLASH_LATENCY_2) != HAL_OK)
 230:./Src/main.c  ****   {
 231:./Src/main.c  ****     Error_Handler();
 232:./Src/main.c  ****   }
 233:./Src/main.c  **** 
 234:./Src/main.c  ****   PeriphClkInit.PeriphClockSelection = RCC_PERIPHCLK_ADC;
 235:./Src/main.c  ****   PeriphClkInit.AdcClockSelection = RCC_ADCPCLK2_DIV8;
 236:./Src/main.c  ****   if (HAL_RCCEx_PeriphCLKConfig(&PeriphClkInit) != HAL_OK)
 237:./Src/main.c  ****   {
 238:./Src/main.c  ****     Error_Handler();
 239:./Src/main.c  ****   }
 240:./Src/main.c  **** 
 241:./Src/main.c  ****     /**Configure the Systick interrupt time
 242:./Src/main.c  ****     */
 243:./Src/main.c  ****   HAL_SYSTICK_Config(HAL_RCC_GetHCLKFreq()/1000);
 244:./Src/main.c  **** 
 245:./Src/main.c  ****     /**Configure the Systick
 246:./Src/main.c  ****     */
 247:./Src/main.c  ****   HAL_SYSTICK_CLKSourceConfig(SYSTICK_CLKSOURCE_HCLK);
 248:./Src/main.c  **** 
 249:./Src/main.c  ****   /* SysTick_IRQn interrupt configuration */
 250:./Src/main.c  ****   HAL_NVIC_SetPriority(SysTick_IRQn, 0, 0);
 251:./Src/main.c  **** }
 252:./Src/main.c  **** 
 253:./Src/main.c  **** /* IWDG init function */
 254:./Src/main.c  **** static void MX_IWDG_Init(void)
 255:./Src/main.c  **** {
 256:./Src/main.c  ****   __HAL_RCC_WWDG_CLK_ENABLE();
 257:./Src/main.c  ****   hiwdg.Instance = IWDG;
 258:./Src/main.c  ****   hiwdg.Init.Prescaler = IWDG_PRESCALER_8;
 259:./Src/main.c  ****   hiwdg.Init.Reload = 4095;
ARM GAS  /tmp/ccoRs8RI.s 			page 6


 260:./Src/main.c  ****   if (HAL_IWDG_Init(&hiwdg) != HAL_OK)
 261:./Src/main.c  ****   {
 262:./Src/main.c  ****     Error_Handler();
 263:./Src/main.c  ****   }
 264:./Src/main.c  ****   HAL_IWDG_Start(&hiwdg);
 265:./Src/main.c  **** }
 266:./Src/main.c  **** 
 267:./Src/main.c  **** 
 268:./Src/main.c  **** void HAL_ADC_ConvCpltCallback(ADC_HandleTypeDef* hadc){
  28              		.loc 1 268 0
  29              		.cfi_startproc
  30              		@ args = 0, pretend = 0, frame = 0
  31              		@ frame_needed = 0, uses_anonymous_args = 0
  32              	.LVL0:
  33 0000 10B5     		push	{r4, lr}
  34              	.LCFI0:
  35              		.cfi_def_cfa_offset 8
  36              		.cfi_offset 4, -8
  37              		.cfi_offset 14, -4
  38 0002 0446     		mov	r4, r0
 269:./Src/main.c  ****   if(hadc->Instance == ADC1){
  39              		.loc 1 269 0
  40 0004 0268     		ldr	r2, [r0]
  41 0006 064B     		ldr	r3, .L5
  42 0008 9A42     		cmp	r2, r3
  43 000a 01D1     		bne	.L2
 270:./Src/main.c  ****     ADC_R_callback();
  44              		.loc 1 270 0
  45 000c FFF7FEFF 		bl	ADC_R_callback
  46              	.LVL1:
  47              	.L2:
 271:./Src/main.c  ****   }
 272:./Src/main.c  ****   if(hadc->Instance == ADC3){
  48              		.loc 1 272 0
  49 0010 2268     		ldr	r2, [r4]
  50 0012 044B     		ldr	r3, .L5+4
  51 0014 9A42     		cmp	r2, r3
  52 0016 01D1     		bne	.L1
 273:./Src/main.c  ****     ADC_L_callback();
  53              		.loc 1 273 0
  54 0018 FFF7FEFF 		bl	ADC_L_callback
  55              	.LVL2:
  56              	.L1:
  57 001c 10BD     		pop	{r4, pc}
  58              	.LVL3:
  59              	.L6:
  60 001e 00BF     		.align	2
  61              	.L5:
  62 0020 00240140 		.word	1073816576
  63 0024 003C0140 		.word	1073822720
  64              		.cfi_endproc
  65              	.LFE67:
  67              		.section	.text.Error_Handler,"ax",%progbits
  68              		.align	2
  69              		.global	Error_Handler
  70              		.thumb
  71              		.thumb_func
ARM GAS  /tmp/ccoRs8RI.s 			page 7


  73              	Error_Handler:
  74              	.LFB68:
 274:./Src/main.c  ****   }
 275:./Src/main.c  **** }
 276:./Src/main.c  **** 
 277:./Src/main.c  **** 
 278:./Src/main.c  **** /**
 279:./Src/main.c  ****   * @brief  This function is executed in case of error occurrence.
 280:./Src/main.c  ****   * @param  None
 281:./Src/main.c  ****   * @retval None
 282:./Src/main.c  ****   */
 283:./Src/main.c  **** void Error_Handler(void)
 284:./Src/main.c  **** {
  75              		.loc 1 284 0
  76              		.cfi_startproc
  77              		@ Volatile: function does not return.
  78              		@ args = 0, pretend = 0, frame = 0
  79              		@ frame_needed = 0, uses_anonymous_args = 0
  80 0000 08B5     		push	{r3, lr}
  81              	.LCFI1:
  82              		.cfi_def_cfa_offset 8
  83              		.cfi_offset 3, -8
  84              		.cfi_offset 14, -4
 285:./Src/main.c  ****   /* USER CODE BEGIN Error_Handler */
 286:./Src/main.c  ****   /* User can add his own implementation to report the HAL error return state */
 287:./Src/main.c  ****   MotorR_stop();
  85              		.loc 1 287 0
  86 0002 FFF7FEFF 		bl	MotorR_stop
  87              	.LVL4:
 288:./Src/main.c  ****   MotorL_stop();
  88              		.loc 1 288 0
  89 0006 FFF7FEFF 		bl	MotorL_stop
  90              	.LVL5:
  91              	.L8:
  92 000a FEE7     		b	.L8
  93              		.cfi_endproc
  94              	.LFE68:
  96              		.section	.text.MX_IWDG_Init,"ax",%progbits
  97              		.align	2
  98              		.thumb
  99              		.thumb_func
 101              	MX_IWDG_Init:
 102              	.LFB66:
 255:./Src/main.c  ****   __HAL_RCC_WWDG_CLK_ENABLE();
 103              		.loc 1 255 0
 104              		.cfi_startproc
 105              		@ args = 0, pretend = 0, frame = 8
 106              		@ frame_needed = 0, uses_anonymous_args = 0
 107 0000 00B5     		push	{lr}
 108              	.LCFI2:
 109              		.cfi_def_cfa_offset 4
 110              		.cfi_offset 14, -4
 111 0002 83B0     		sub	sp, sp, #12
 112              	.LCFI3:
 113              		.cfi_def_cfa_offset 16
 114              	.LBB2:
 256:./Src/main.c  ****   hiwdg.Instance = IWDG;
ARM GAS  /tmp/ccoRs8RI.s 			page 8


 115              		.loc 1 256 0
 116 0004 0E4B     		ldr	r3, .L13
 117 0006 DA69     		ldr	r2, [r3, #28]
 118 0008 42F40062 		orr	r2, r2, #2048
 119 000c DA61     		str	r2, [r3, #28]
 120 000e DB69     		ldr	r3, [r3, #28]
 121 0010 03F40063 		and	r3, r3, #2048
 122 0014 0193     		str	r3, [sp, #4]
 123 0016 019B     		ldr	r3, [sp, #4]
 124              	.LBE2:
 257:./Src/main.c  ****   hiwdg.Init.Prescaler = IWDG_PRESCALER_8;
 125              		.loc 1 257 0
 126 0018 0A48     		ldr	r0, .L13+4
 127 001a 0B4B     		ldr	r3, .L13+8
 128 001c 0360     		str	r3, [r0]
 258:./Src/main.c  ****   hiwdg.Init.Reload = 4095;
 129              		.loc 1 258 0
 130 001e 0123     		movs	r3, #1
 131 0020 4360     		str	r3, [r0, #4]
 259:./Src/main.c  ****   if (HAL_IWDG_Init(&hiwdg) != HAL_OK)
 132              		.loc 1 259 0
 133 0022 40F6FF73 		movw	r3, #4095
 134 0026 8360     		str	r3, [r0, #8]
 260:./Src/main.c  ****   {
 135              		.loc 1 260 0
 136 0028 FFF7FEFF 		bl	HAL_IWDG_Init
 137              	.LVL6:
 138 002c 08B1     		cbz	r0, .L11
 262:./Src/main.c  ****   }
 139              		.loc 1 262 0
 140 002e FFF7FEFF 		bl	Error_Handler
 141              	.LVL7:
 142              	.L11:
 264:./Src/main.c  **** }
 143              		.loc 1 264 0
 144 0032 0448     		ldr	r0, .L13+4
 145 0034 FFF7FEFF 		bl	HAL_IWDG_Start
 146              	.LVL8:
 265:./Src/main.c  **** 
 147              		.loc 1 265 0
 148 0038 03B0     		add	sp, sp, #12
 149              	.LCFI4:
 150              		.cfi_def_cfa_offset 4
 151              		@ sp needed
 152 003a 5DF804FB 		ldr	pc, [sp], #4
 153              	.L14:
 154 003e 00BF     		.align	2
 155              	.L13:
 156 0040 00100240 		.word	1073876992
 157 0044 00000000 		.word	hiwdg
 158 0048 00300040 		.word	1073754112
 159              		.cfi_endproc
 160              	.LFE66:
 162              		.section	.text.SystemClock_Config,"ax",%progbits
 163              		.align	2
 164              		.global	SystemClock_Config
 165              		.thumb
ARM GAS  /tmp/ccoRs8RI.s 			page 9


 166              		.thumb_func
 168              	SystemClock_Config:
 169              	.LFB65:
 201:./Src/main.c  **** 
 170              		.loc 1 201 0
 171              		.cfi_startproc
 172              		@ args = 0, pretend = 0, frame = 88
 173              		@ frame_needed = 0, uses_anonymous_args = 0
 174 0000 00B5     		push	{lr}
 175              	.LCFI5:
 176              		.cfi_def_cfa_offset 4
 177              		.cfi_offset 14, -4
 178 0002 97B0     		sub	sp, sp, #92
 179              	.LCFI6:
 180              		.cfi_def_cfa_offset 96
 209:./Src/main.c  ****   RCC_OscInitStruct.HSIState = RCC_HSI_ON;
 181              		.loc 1 209 0
 182 0004 0223     		movs	r3, #2
 183 0006 0C93     		str	r3, [sp, #48]
 210:./Src/main.c  ****   RCC_OscInitStruct.HSICalibrationValue = 16;
 184              		.loc 1 210 0
 185 0008 0122     		movs	r2, #1
 186 000a 1092     		str	r2, [sp, #64]
 211:./Src/main.c  ****   RCC_OscInitStruct.PLL.PLLState = RCC_PLL_ON;
 187              		.loc 1 211 0
 188 000c 1022     		movs	r2, #16
 189 000e 1192     		str	r2, [sp, #68]
 212:./Src/main.c  ****   RCC_OscInitStruct.PLL.PLLSource = RCC_PLLSOURCE_HSI_DIV2;
 190              		.loc 1 212 0
 191 0010 1393     		str	r3, [sp, #76]
 213:./Src/main.c  ****   RCC_OscInitStruct.PLL.PLLMUL = RCC_PLL_MUL16;
 192              		.loc 1 213 0
 193 0012 0023     		movs	r3, #0
 194 0014 1493     		str	r3, [sp, #80]
 214:./Src/main.c  ****   if (HAL_RCC_OscConfig(&RCC_OscInitStruct) != HAL_OK)
 195              		.loc 1 214 0
 196 0016 4FF46013 		mov	r3, #3670016
 197 001a 1593     		str	r3, [sp, #84]
 215:./Src/main.c  ****   {
 198              		.loc 1 215 0
 199 001c 0CA8     		add	r0, sp, #48
 200 001e FFF7FEFF 		bl	HAL_RCC_OscConfig
 201              	.LVL9:
 202 0022 08B1     		cbz	r0, .L16
 217:./Src/main.c  ****   }
 203              		.loc 1 217 0
 204 0024 FFF7FEFF 		bl	Error_Handler
 205              	.LVL10:
 206              	.L16:
 222:./Src/main.c  ****                               |RCC_CLOCKTYPE_PCLK1|RCC_CLOCKTYPE_PCLK2;
 207              		.loc 1 222 0
 208 0028 0F23     		movs	r3, #15
 209 002a 0793     		str	r3, [sp, #28]
 224:./Src/main.c  ****   RCC_ClkInitStruct.AHBCLKDivider = RCC_SYSCLK_DIV1;
 210              		.loc 1 224 0
 211 002c 0221     		movs	r1, #2
 212 002e 0891     		str	r1, [sp, #32]
ARM GAS  /tmp/ccoRs8RI.s 			page 10


 225:./Src/main.c  ****   RCC_ClkInitStruct.APB1CLKDivider = RCC_HCLK_DIV2;
 213              		.loc 1 225 0
 214 0030 0023     		movs	r3, #0
 215 0032 0993     		str	r3, [sp, #36]
 226:./Src/main.c  ****   RCC_ClkInitStruct.APB2CLKDivider = RCC_HCLK_DIV1;
 216              		.loc 1 226 0
 217 0034 4FF48062 		mov	r2, #1024
 218 0038 0A92     		str	r2, [sp, #40]
 227:./Src/main.c  **** 
 219              		.loc 1 227 0
 220 003a 0B93     		str	r3, [sp, #44]
 229:./Src/main.c  ****   {
 221              		.loc 1 229 0
 222 003c 07A8     		add	r0, sp, #28
 223 003e FFF7FEFF 		bl	HAL_RCC_ClockConfig
 224              	.LVL11:
 225 0042 08B1     		cbz	r0, .L17
 231:./Src/main.c  ****   }
 226              		.loc 1 231 0
 227 0044 FFF7FEFF 		bl	Error_Handler
 228              	.LVL12:
 229              	.L17:
 234:./Src/main.c  ****   PeriphClkInit.AdcClockSelection = RCC_ADCPCLK2_DIV8;
 230              		.loc 1 234 0
 231 0048 0223     		movs	r3, #2
 232 004a 0193     		str	r3, [sp, #4]
 235:./Src/main.c  ****   if (HAL_RCCEx_PeriphCLKConfig(&PeriphClkInit) != HAL_OK)
 233              		.loc 1 235 0
 234 004c 4FF44043 		mov	r3, #49152
 235 0050 0393     		str	r3, [sp, #12]
 236:./Src/main.c  ****   {
 236              		.loc 1 236 0
 237 0052 01A8     		add	r0, sp, #4
 238 0054 FFF7FEFF 		bl	HAL_RCCEx_PeriphCLKConfig
 239              	.LVL13:
 240 0058 08B1     		cbz	r0, .L18
 238:./Src/main.c  ****   }
 241              		.loc 1 238 0
 242 005a FFF7FEFF 		bl	Error_Handler
 243              	.LVL14:
 244              	.L18:
 243:./Src/main.c  **** 
 245              		.loc 1 243 0
 246 005e FFF7FEFF 		bl	HAL_RCC_GetHCLKFreq
 247              	.LVL15:
 248 0062 094B     		ldr	r3, .L20
 249 0064 A3FB0030 		umull	r3, r0, r3, r0
 250 0068 8009     		lsrs	r0, r0, #6
 251 006a FFF7FEFF 		bl	HAL_SYSTICK_Config
 252              	.LVL16:
 247:./Src/main.c  **** 
 253              		.loc 1 247 0
 254 006e 0420     		movs	r0, #4
 255 0070 FFF7FEFF 		bl	HAL_SYSTICK_CLKSourceConfig
 256              	.LVL17:
 250:./Src/main.c  **** }
 257              		.loc 1 250 0
ARM GAS  /tmp/ccoRs8RI.s 			page 11


 258 0074 0022     		movs	r2, #0
 259 0076 1146     		mov	r1, r2
 260 0078 4FF0FF30 		mov	r0, #-1
 261 007c FFF7FEFF 		bl	HAL_NVIC_SetPriority
 262              	.LVL18:
 251:./Src/main.c  **** 
 263              		.loc 1 251 0
 264 0080 17B0     		add	sp, sp, #92
 265              	.LCFI7:
 266              		.cfi_def_cfa_offset 4
 267              		@ sp needed
 268 0082 5DF804FB 		ldr	pc, [sp], #4
 269              	.L21:
 270 0086 00BF     		.align	2
 271              	.L20:
 272 0088 D34D6210 		.word	274877907
 273              		.cfi_endproc
 274              	.LFE65:
 276              		.section	.text.main,"ax",%progbits
 277              		.align	2
 278              		.global	main
 279              		.thumb
 280              		.thumb_func
 282              	main:
 283              	.LFB64:
 100:./Src/main.c  ****   /* Reset of all peripherals, Initializes the Flash interface and the Systick. */
 284              		.loc 1 100 0
 285              		.cfi_startproc
 286              		@ args = 0, pretend = 0, frame = 104
 287              		@ frame_needed = 0, uses_anonymous_args = 0
 288 0000 70B5     		push	{r4, r5, r6, lr}
 289              	.LCFI8:
 290              		.cfi_def_cfa_offset 16
 291              		.cfi_offset 4, -16
 292              		.cfi_offset 5, -12
 293              		.cfi_offset 6, -8
 294              		.cfi_offset 14, -4
 295 0002 9AB0     		sub	sp, sp, #104
 296              	.LCFI9:
 297              		.cfi_def_cfa_offset 120
 102:./Src/main.c  **** 
 298              		.loc 1 102 0
 299 0004 FFF7FEFF 		bl	HAL_Init
 300              	.LVL19:
 105:./Src/main.c  **** 
 301              		.loc 1 105 0
 302 0008 FFF7FEFF 		bl	SystemClock_Config
 303              	.LVL20:
 107:./Src/main.c  **** 
 304              		.loc 1 107 0
 305 000c FFF7FEFF 		bl	MX_IWDG_Init
 306              	.LVL21:
 109:./Src/main.c  **** 
 307              		.loc 1 109 0
 308 0010 FFF7FEFF 		bl	_init_us
 309              	.LVL22:
 112:./Src/main.c  **** 
ARM GAS  /tmp/ccoRs8RI.s 			page 12


 310              		.loc 1 112 0
 311 0014 FFF7FEFF 		bl	Telemetry_init
 312              	.LVL23:
 125:./Src/main.c  ****   Led_init();
 313              		.loc 1 125 0
 314 0018 FFF7FEFF 		bl	Buzzer_init
 315              	.LVL24:
 126:./Src/main.c  ****   IS_Charge_init();
 316              		.loc 1 126 0
 317 001c FFF7FEFF 		bl	Led_init
 318              	.LVL25:
 127:./Src/main.c  **** 
 319              		.loc 1 127 0
 320 0020 FFF7FEFF 		bl	IS_Charge_init
 321              	.LVL26:
 129:./Src/main.c  ****   ADC_R_init();
 322              		.loc 1 129 0
 323 0024 FFF7FEFF 		bl	ADC_L_init
 324              	.LVL27:
 130:./Src/main.c  ****   MotorL_init();
 325              		.loc 1 130 0
 326 0028 FFF7FEFF 		bl	ADC_R_init
 327              	.LVL28:
 131:./Src/main.c  ****   MotorR_init();
 328              		.loc 1 131 0
 329 002c FFF7FEFF 		bl	MotorL_init
 330              	.LVL29:
 132:./Src/main.c  **** 
 331              		.loc 1 132 0
 332 0030 FFF7FEFF 		bl	MotorR_init
 333              	.LVL30:
 140:./Src/main.c  ****   Buzzer_OneBeep();
 334              		.loc 1 140 0
 335 0034 0120     		movs	r0, #1
 336 0036 FFF7FEFF 		bl	Led_Set
 337              	.LVL31:
 141:./Src/main.c  ****   HAL_Delay(350);
 338              		.loc 1 141 0
 339 003a FFF7FEFF 		bl	Buzzer_OneBeep
 340              	.LVL32:
 142:./Src/main.c  ****   Led_Set(0);
 341              		.loc 1 142 0
 342 003e 4FF4AF70 		mov	r0, #350
 343 0042 FFF7FEFF 		bl	HAL_Delay
 344              	.LVL33:
 143:./Src/main.c  **** 
 345              		.loc 1 143 0
 346 0046 0020     		movs	r0, #0
 347 0048 FFF7FEFF 		bl	Led_Set
 348              	.LVL34:
 145:./Src/main.c  ****   MotorR_start();
 349              		.loc 1 145 0
 350 004c FFF7FEFF 		bl	applcation_init
 351              	.LVL35:
 146:./Src/main.c  ****   MotorL_start();
 352              		.loc 1 146 0
 353 0050 FFF7FEFF 		bl	MotorR_start
ARM GAS  /tmp/ccoRs8RI.s 			page 13


 354              	.LVL36:
 147:./Src/main.c  ****   MotorR_pwm(80);
 355              		.loc 1 147 0
 356 0054 FFF7FEFF 		bl	MotorL_start
 357              	.LVL37:
 148:./Src/main.c  **** 
 358              		.loc 1 148 0
 359 0058 5020     		movs	r0, #80
 360 005a FFF7FEFF 		bl	MotorR_pwm
 361              	.LVL38:
 151:./Src/main.c  ****   while(1){
 362              		.loc 1 151 0
 363 005e 0025     		movs	r5, #0
 150:./Src/main.c  ****   uint8_t state = 0;
 364              		.loc 1 150 0
 365 0060 40F6CA04 		movw	r4, #2250
 366              	.LVL39:
 367              	.L24:
 153:./Src/main.c  ****     //int speedL = -CLAMP(getMotorR(), -200, 200);
 368              		.loc 1 153 0
 369 0064 0134     		adds	r4, r4, #1
 370              	.LVL40:
 158:./Src/main.c  ****     if ((sinValue) % (180 * 50) == 0) {
 371              		.loc 1 158 0
 372 0066 FFF7FEFF 		bl	HAL_GetTick
 373              	.LVL41:
 374 006a 174B     		ldr	r3, .L26
 375 006c 1860     		str	r0, [r3]
 159:./Src/main.c  ****       state = !state;
 376              		.loc 1 159 0
 377 006e 174B     		ldr	r3, .L26+4
 378 0070 A3FB0423 		umull	r2, r3, r3, r4
 379 0074 5B0B     		lsrs	r3, r3, #13
 380 0076 42F22832 		movw	r2, #9000
 381 007a 02FB1343 		mls	r3, r2, r3, r4
 382 007e BBB9     		cbnz	r3, .L23
 383              	.LBB3:
 160:./Src/main.c  ****       Led_Set(state);
 384              		.loc 1 160 0
 385 0080 85F00105 		eor	r5, r5, #1
 386              	.LVL42:
 161:./Src/main.c  ****       //Console_Log("otter!\n\r");
 387              		.loc 1 161 0
 388 0084 2846     		mov	r0, r5
 389 0086 FFF7FEFF 		bl	Led_Set
 390              	.LVL43:
 165:./Src/main.c  ****       sprintf(str, "%i;%i\n\r", ADC_PA2(), ADC_PA3());
 391              		.loc 1 165 0
 392 008a 6422     		movs	r2, #100
 393 008c 0021     		movs	r1, #0
 394 008e 01A8     		add	r0, sp, #4
 395 0090 FFF7FEFF 		bl	memset
 396              	.LVL44:
 166:./Src/main.c  **** 
 397              		.loc 1 166 0
 398 0094 FFF7FEFF 		bl	ADC_PA2
 399              	.LVL45:
ARM GAS  /tmp/ccoRs8RI.s 			page 14


 400 0098 0646     		mov	r6, r0
 401 009a FFF7FEFF 		bl	ADC_PA3
 402              	.LVL46:
 403 009e 0346     		mov	r3, r0
 404 00a0 3246     		mov	r2, r6
 405 00a2 0B49     		ldr	r1, .L26+8
 406 00a4 01A8     		add	r0, sp, #4
 407 00a6 FFF7FEFF 		bl	sprintf
 408              	.LVL47:
 168:./Src/main.c  ****     }
 409              		.loc 1 168 0
 410 00aa 01A8     		add	r0, sp, #4
 411 00ac FFF7FEFF 		bl	Console_Log
 412              	.LVL48:
 413              	.L23:
 414              	.LBE3:
 188:./Src/main.c  **** 
 415              		.loc 1 188 0
 416 00b0 0848     		ldr	r0, .L26+12
 417 00b2 FFF7FEFF 		bl	HAL_IWDG_Refresh
 418              	.LVL49:
 190:./Src/main.c  **** 
 419              		.loc 1 190 0
 420 00b6 FFF7FEFF 		bl	HAL_GetTick
 421              	.LVL50:
 422 00ba 034B     		ldr	r3, .L26
 423 00bc 1B68     		ldr	r3, [r3]
 424 00be C01A     		subs	r0, r0, r3
 425 00c0 054B     		ldr	r3, .L26+16
 426 00c2 1860     		str	r0, [r3]
 194:./Src/main.c  **** 
 427              		.loc 1 194 0
 428 00c4 CEE7     		b	.L24
 429              	.L27:
 430 00c6 00BF     		.align	2
 431              	.L26:
 432 00c8 00000000 		.word	counterTemp
 433 00cc D55204E9 		.word	-385592619
 434 00d0 00000000 		.word	.LC0
 435 00d4 00000000 		.word	hiwdg
 436 00d8 00000000 		.word	counterTempTT
 437              		.cfi_endproc
 438              	.LFE64:
 440              		.comm	counterTempTT,4,4
 441              		.comm	counterTemp,4,4
 442              		.global	speed
 443              		.comm	hiwdg,16,4
 444              		.section	.rodata.str1.4,"aMS",%progbits,1
 445              		.align	2
 446              	.LC0:
 447 0000 25693B25 		.ascii	"%i;%i\012\015\000"
 447      690A0D00 
 448              		.section	.bss.speed,"aw",%nobits
 449              		.align	1
 452              	speed:
 453 0000 0000     		.space	2
 454              		.text
ARM GAS  /tmp/ccoRs8RI.s 			page 15


 455              	.Letext0:
 456              		.file 2 "/home/niklas/gcc-arm-none-eabi-5_4-2016q3/arm-none-eabi/include/machine/_default_types.h"
 457              		.file 3 "/home/niklas/gcc-arm-none-eabi-5_4-2016q3/arm-none-eabi/include/sys/_stdint.h"
 458              		.file 4 "./Drivers/CMSIS/Device/ST/STM32F1xx/Include/stm32f103xe.h"
 459              		.file 5 "./Drivers/STM32F1xx_HAL_Driver/Inc/stm32f1xx_hal_def.h"
 460              		.file 6 "./Drivers/STM32F1xx_HAL_Driver/Inc/stm32f1xx_hal_rcc.h"
 461              		.file 7 "./Drivers/STM32F1xx_HAL_Driver/Inc/stm32f1xx_hal_rcc_ex.h"
 462              		.file 8 "./Drivers/STM32F1xx_HAL_Driver/Inc/stm32f1xx_hal_dma.h"
 463              		.file 9 "./Drivers/STM32F1xx_HAL_Driver/Inc/stm32f1xx_hal_adc.h"
 464              		.file 10 "./Drivers/STM32F1xx_HAL_Driver/Inc/stm32f1xx_hal_iwdg.h"
 465              		.file 11 "./Drivers/CMSIS/Include/core_cm3.h"
 466              		.file 12 "./Inc/ADC_R.h"
 467              		.file 13 "./Inc/ADC_L.h"
 468              		.file 14 "./Inc/motor_R.h"
 469              		.file 15 "./Inc/motor_L.h"
 470              		.file 16 "./Drivers/STM32F1xx_HAL_Driver/Inc/stm32f1xx_hal_cortex.h"
 471              		.file 17 "./Inc/varie.h"
 472              		.file 18 "/home/niklas/gcc-arm-none-eabi-5_4-2016q3/arm-none-eabi/include/stdio.h"
 473              		.file 19 "./Drivers/STM32F1xx_HAL_Driver/Inc/stm32f1xx_hal.h"
 474              		.file 20 "./Inc/delay.h"
 475              		.file 21 "./Inc/telemetry.h"
 476              		.file 22 "./Inc/application.h"
 477              		.file 23 "<built-in>"
ARM GAS  /tmp/ccoRs8RI.s 			page 16


DEFINED SYMBOLS
                            *ABS*:00000000 main.c
     /tmp/ccoRs8RI.s:20     .text.HAL_ADC_ConvCpltCallback:00000000 $t
     /tmp/ccoRs8RI.s:25     .text.HAL_ADC_ConvCpltCallback:00000000 HAL_ADC_ConvCpltCallback
     /tmp/ccoRs8RI.s:62     .text.HAL_ADC_ConvCpltCallback:00000020 $d
     /tmp/ccoRs8RI.s:68     .text.Error_Handler:00000000 $t
     /tmp/ccoRs8RI.s:73     .text.Error_Handler:00000000 Error_Handler
     /tmp/ccoRs8RI.s:97     .text.MX_IWDG_Init:00000000 $t
     /tmp/ccoRs8RI.s:101    .text.MX_IWDG_Init:00000000 MX_IWDG_Init
     /tmp/ccoRs8RI.s:156    .text.MX_IWDG_Init:00000040 $d
                            *COM*:00000010 hiwdg
     /tmp/ccoRs8RI.s:163    .text.SystemClock_Config:00000000 $t
     /tmp/ccoRs8RI.s:168    .text.SystemClock_Config:00000000 SystemClock_Config
     /tmp/ccoRs8RI.s:272    .text.SystemClock_Config:00000088 $d
     /tmp/ccoRs8RI.s:277    .text.main:00000000 $t
     /tmp/ccoRs8RI.s:282    .text.main:00000000 main
     /tmp/ccoRs8RI.s:432    .text.main:000000c8 $d
                            *COM*:00000004 counterTemp
                            *COM*:00000004 counterTempTT
     /tmp/ccoRs8RI.s:452    .bss.speed:00000000 speed
     /tmp/ccoRs8RI.s:445    .rodata.str1.4:00000000 $d
     /tmp/ccoRs8RI.s:449    .bss.speed:00000000 $d
                     .debug_frame:00000010 $d

UNDEFINED SYMBOLS
ADC_R_callback
ADC_L_callback
MotorR_stop
MotorL_stop
HAL_IWDG_Init
HAL_IWDG_Start
HAL_RCC_OscConfig
HAL_RCC_ClockConfig
HAL_RCCEx_PeriphCLKConfig
HAL_RCC_GetHCLKFreq
HAL_SYSTICK_Config
HAL_SYSTICK_CLKSourceConfig
HAL_NVIC_SetPriority
HAL_Init
_init_us
Telemetry_init
Buzzer_init
Led_init
IS_Charge_init
ADC_L_init
ADC_R_init
MotorL_init
MotorR_init
Led_Set
Buzzer_OneBeep
HAL_Delay
applcation_init
MotorR_start
MotorL_start
MotorR_pwm
HAL_GetTick
memset
ARM GAS  /tmp/ccoRs8RI.s 			page 17


ADC_PA2
ADC_PA3
sprintf
Console_Log
HAL_IWDG_Refresh
