ARM GAS  /tmp/ccPtQ0BP.s 			page 1


   1              		.syntax unified
   2              		.cpu cortex-m3
   3              		.fpu softvfp
   4              		.eabi_attribute 20, 1
   5              		.eabi_attribute 21, 1
   6              		.eabi_attribute 23, 3
   7              		.eabi_attribute 24, 1
   8              		.eabi_attribute 25, 1
   9              		.eabi_attribute 26, 1
  10              		.eabi_attribute 30, 1
  11              		.eabi_attribute 34, 1
  12              		.eabi_attribute 18, 4
  13              		.thumb
  14              		.syntax unified
  15              		.file	"stm32f1xx_hal_msp.c"
  16              		.text
  17              	.Ltext0:
  18              		.cfi_sections	.debug_frame
  19              		.section	.text.HAL_MspInit,"ax",%progbits
  20              		.align	2
  21              		.global	HAL_MspInit
  22              		.thumb
  23              		.thumb_func
  25              	HAL_MspInit:
  26              	.LFB64:
  27              		.file 1 "./Src/stm32f1xx_hal_msp.c"
   1:./Src/stm32f1xx_hal_msp.c **** /**
   2:./Src/stm32f1xx_hal_msp.c ****   ******************************************************************************
   3:./Src/stm32f1xx_hal_msp.c ****   * File Name          : stm32f1xx_hal_msp.c
   4:./Src/stm32f1xx_hal_msp.c ****   * Description        : This file provides code for the MSP Initialization
   5:./Src/stm32f1xx_hal_msp.c ****   *                      and de-Initialization codes.
   6:./Src/stm32f1xx_hal_msp.c ****   ******************************************************************************
   7:./Src/stm32f1xx_hal_msp.c ****   *
   8:./Src/stm32f1xx_hal_msp.c ****   * COPYRIGHT(c) 2017 STMicroelectronics
   9:./Src/stm32f1xx_hal_msp.c ****   *
  10:./Src/stm32f1xx_hal_msp.c ****   * Redistribution and use in source and binary forms, with or without modification,
  11:./Src/stm32f1xx_hal_msp.c ****   * are permitted provided that the following conditions are met:
  12:./Src/stm32f1xx_hal_msp.c ****   *   1. Redistributions of source code must retain the above copyright notice,
  13:./Src/stm32f1xx_hal_msp.c ****   *      this list of conditions and the following disclaimer.
  14:./Src/stm32f1xx_hal_msp.c ****   *   2. Redistributions in binary form must reproduce the above copyright notice,
  15:./Src/stm32f1xx_hal_msp.c ****   *      this list of conditions and the following disclaimer in the documentation
  16:./Src/stm32f1xx_hal_msp.c ****   *      and/or other materials provided with the distribution.
  17:./Src/stm32f1xx_hal_msp.c ****   *   3. Neither the name of STMicroelectronics nor the names of its contributors
  18:./Src/stm32f1xx_hal_msp.c ****   *      may be used to endorse or promote products derived from this software
  19:./Src/stm32f1xx_hal_msp.c ****   *      without specific prior written permission.
  20:./Src/stm32f1xx_hal_msp.c ****   *
  21:./Src/stm32f1xx_hal_msp.c ****   * THIS SOFTWARE IS PROVIDED BY THE COPYRIGHT HOLDERS AND CONTRIBUTORS "AS IS"
  22:./Src/stm32f1xx_hal_msp.c ****   * AND ANY EXPRESS OR IMPLIED WARRANTIES, INCLUDING, BUT NOT LIMITED TO, THE
  23:./Src/stm32f1xx_hal_msp.c ****   * IMPLIED WARRANTIES OF MERCHANTABILITY AND FITNESS FOR A PARTICULAR PURPOSE ARE
  24:./Src/stm32f1xx_hal_msp.c ****   * DISCLAIMED. IN NO EVENT SHALL THE COPYRIGHT HOLDER OR CONTRIBUTORS BE LIABLE
  25:./Src/stm32f1xx_hal_msp.c ****   * FOR ANY DIRECT, INDIRECT, INCIDENTAL, SPECIAL, EXEMPLARY, OR CONSEQUENTIAL
  26:./Src/stm32f1xx_hal_msp.c ****   * DAMAGES (INCLUDING, BUT NOT LIMITED TO, PROCUREMENT OF SUBSTITUTE GOODS OR
  27:./Src/stm32f1xx_hal_msp.c ****   * SERVICES; LOSS OF USE, DATA, OR PROFITS; OR BUSINESS INTERRUPTION) HOWEVER
  28:./Src/stm32f1xx_hal_msp.c ****   * CAUSED AND ON ANY THEORY OF LIABILITY, WHETHER IN CONTRACT, STRICT LIABILITY,
  29:./Src/stm32f1xx_hal_msp.c ****   * OR TORT (INCLUDING NEGLIGENCE OR OTHERWISE) ARISING IN ANY WAY OUT OF THE USE
  30:./Src/stm32f1xx_hal_msp.c ****   * OF THIS SOFTWARE, EVEN IF ADVISED OF THE POSSIBILITY OF SUCH DAMAGE.
  31:./Src/stm32f1xx_hal_msp.c ****   *
ARM GAS  /tmp/ccPtQ0BP.s 			page 2


  32:./Src/stm32f1xx_hal_msp.c ****   ******************************************************************************
  33:./Src/stm32f1xx_hal_msp.c ****   */
  34:./Src/stm32f1xx_hal_msp.c **** /* Includes ------------------------------------------------------------------*/
  35:./Src/stm32f1xx_hal_msp.c **** #include "stm32f1xx_hal.h"
  36:./Src/stm32f1xx_hal_msp.c **** 
  37:./Src/stm32f1xx_hal_msp.c **** extern DMA_HandleTypeDef hdma_adc1;
  38:./Src/stm32f1xx_hal_msp.c **** extern DMA_HandleTypeDef hdma_adc3;
  39:./Src/stm32f1xx_hal_msp.c **** extern DMA_HandleTypeDef hdma_i2c2_rx;
  40:./Src/stm32f1xx_hal_msp.c **** 
  41:./Src/stm32f1xx_hal_msp.c **** extern DMA_HandleTypeDef hdma_i2c2_tx;
  42:./Src/stm32f1xx_hal_msp.c **** 
  43:./Src/stm32f1xx_hal_msp.c **** extern DMA_HandleTypeDef hdma_usart3_rx;
  44:./Src/stm32f1xx_hal_msp.c **** 
  45:./Src/stm32f1xx_hal_msp.c **** extern DMA_HandleTypeDef hdma_usart3_tx;
  46:./Src/stm32f1xx_hal_msp.c **** 
  47:./Src/stm32f1xx_hal_msp.c **** extern void Error_Handler(void);
  48:./Src/stm32f1xx_hal_msp.c **** /* USER CODE BEGIN 0 */
  49:./Src/stm32f1xx_hal_msp.c **** 
  50:./Src/stm32f1xx_hal_msp.c **** /* USER CODE END 0 */
  51:./Src/stm32f1xx_hal_msp.c **** /**
  52:./Src/stm32f1xx_hal_msp.c ****   * Initializes the Global MSP.
  53:./Src/stm32f1xx_hal_msp.c ****   */
  54:./Src/stm32f1xx_hal_msp.c **** void HAL_MspInit(void)
  55:./Src/stm32f1xx_hal_msp.c **** {
  28              		.loc 1 55 0
  29              		.cfi_startproc
  30              		@ args = 0, pretend = 0, frame = 8
  31              		@ frame_needed = 0, uses_anonymous_args = 0
  32 0000 00B5     		push	{lr}
  33              	.LCFI0:
  34              		.cfi_def_cfa_offset 4
  35              		.cfi_offset 14, -4
  36 0002 83B0     		sub	sp, sp, #12
  37              	.LCFI1:
  38              		.cfi_def_cfa_offset 16
  39              	.LBB2:
  56:./Src/stm32f1xx_hal_msp.c ****   /* USER CODE BEGIN MspInit 0 */
  57:./Src/stm32f1xx_hal_msp.c **** 
  58:./Src/stm32f1xx_hal_msp.c ****   /* USER CODE END MspInit 0 */
  59:./Src/stm32f1xx_hal_msp.c **** 
  60:./Src/stm32f1xx_hal_msp.c ****   __HAL_RCC_AFIO_CLK_ENABLE();
  40              		.loc 1 60 0
  41 0004 1C4B     		ldr	r3, .L3
  42 0006 9A69     		ldr	r2, [r3, #24]
  43 0008 42F00102 		orr	r2, r2, #1
  44 000c 9A61     		str	r2, [r3, #24]
  45 000e 9B69     		ldr	r3, [r3, #24]
  46 0010 03F00103 		and	r3, r3, #1
  47 0014 0193     		str	r3, [sp, #4]
  48 0016 019B     		ldr	r3, [sp, #4]
  49              	.LBE2:
  61:./Src/stm32f1xx_hal_msp.c **** 
  62:./Src/stm32f1xx_hal_msp.c ****   HAL_NVIC_SetPriorityGrouping(NVIC_PRIORITYGROUP_4);
  50              		.loc 1 62 0
  51 0018 0320     		movs	r0, #3
  52 001a FFF7FEFF 		bl	HAL_NVIC_SetPriorityGrouping
  53              	.LVL0:
ARM GAS  /tmp/ccPtQ0BP.s 			page 3


  63:./Src/stm32f1xx_hal_msp.c **** 
  64:./Src/stm32f1xx_hal_msp.c ****   /* System interrupt init*/
  65:./Src/stm32f1xx_hal_msp.c ****   /* MemoryManagement_IRQn interrupt configuration */
  66:./Src/stm32f1xx_hal_msp.c ****   HAL_NVIC_SetPriority(MemoryManagement_IRQn, 0, 0);
  54              		.loc 1 66 0
  55 001e 0022     		movs	r2, #0
  56 0020 1146     		mov	r1, r2
  57 0022 6FF00B00 		mvn	r0, #11
  58 0026 FFF7FEFF 		bl	HAL_NVIC_SetPriority
  59              	.LVL1:
  67:./Src/stm32f1xx_hal_msp.c ****   /* BusFault_IRQn interrupt configuration */
  68:./Src/stm32f1xx_hal_msp.c ****   HAL_NVIC_SetPriority(BusFault_IRQn, 0, 0);
  60              		.loc 1 68 0
  61 002a 0022     		movs	r2, #0
  62 002c 1146     		mov	r1, r2
  63 002e 6FF00A00 		mvn	r0, #10
  64 0032 FFF7FEFF 		bl	HAL_NVIC_SetPriority
  65              	.LVL2:
  69:./Src/stm32f1xx_hal_msp.c ****   /* UsageFault_IRQn interrupt configuration */
  70:./Src/stm32f1xx_hal_msp.c ****   HAL_NVIC_SetPriority(UsageFault_IRQn, 0, 0);
  66              		.loc 1 70 0
  67 0036 0022     		movs	r2, #0
  68 0038 1146     		mov	r1, r2
  69 003a 6FF00900 		mvn	r0, #9
  70 003e FFF7FEFF 		bl	HAL_NVIC_SetPriority
  71              	.LVL3:
  71:./Src/stm32f1xx_hal_msp.c ****   /* SVCall_IRQn interrupt configuration */
  72:./Src/stm32f1xx_hal_msp.c ****   HAL_NVIC_SetPriority(SVCall_IRQn, 0, 0);
  72              		.loc 1 72 0
  73 0042 0022     		movs	r2, #0
  74 0044 1146     		mov	r1, r2
  75 0046 6FF00400 		mvn	r0, #4
  76 004a FFF7FEFF 		bl	HAL_NVIC_SetPriority
  77              	.LVL4:
  73:./Src/stm32f1xx_hal_msp.c ****   /* DebugMonitor_IRQn interrupt configuration */
  74:./Src/stm32f1xx_hal_msp.c ****   HAL_NVIC_SetPriority(DebugMonitor_IRQn, 0, 0);
  78              		.loc 1 74 0
  79 004e 0022     		movs	r2, #0
  80 0050 1146     		mov	r1, r2
  81 0052 6FF00300 		mvn	r0, #3
  82 0056 FFF7FEFF 		bl	HAL_NVIC_SetPriority
  83              	.LVL5:
  75:./Src/stm32f1xx_hal_msp.c ****   /* PendSV_IRQn interrupt configuration */
  76:./Src/stm32f1xx_hal_msp.c ****   HAL_NVIC_SetPriority(PendSV_IRQn, 0, 0);
  84              		.loc 1 76 0
  85 005a 0022     		movs	r2, #0
  86 005c 1146     		mov	r1, r2
  87 005e 6FF00100 		mvn	r0, #1
  88 0062 FFF7FEFF 		bl	HAL_NVIC_SetPriority
  89              	.LVL6:
  77:./Src/stm32f1xx_hal_msp.c ****   /* SysTick_IRQn interrupt configuration */
  78:./Src/stm32f1xx_hal_msp.c ****   HAL_NVIC_SetPriority(SysTick_IRQn, 0, 0);
  90              		.loc 1 78 0
  91 0066 0022     		movs	r2, #0
  92 0068 1146     		mov	r1, r2
  93 006a 4FF0FF30 		mov	r0, #-1
  94 006e FFF7FEFF 		bl	HAL_NVIC_SetPriority
ARM GAS  /tmp/ccPtQ0BP.s 			page 4


  95              	.LVL7:
  79:./Src/stm32f1xx_hal_msp.c **** 
  80:./Src/stm32f1xx_hal_msp.c ****     /**DISABLE: JTAG-DP Disabled and SW-DP Disabled
  81:./Src/stm32f1xx_hal_msp.c ****     */
  82:./Src/stm32f1xx_hal_msp.c ****  // __HAL_AFIO_REMAP_SWJ_DISABLE();
  83:./Src/stm32f1xx_hal_msp.c **** 
  84:./Src/stm32f1xx_hal_msp.c ****   /* USER CODE BEGIN MspInit 1 */
  85:./Src/stm32f1xx_hal_msp.c **** 
  86:./Src/stm32f1xx_hal_msp.c ****   /* USER CODE END MspInit 1 */
  87:./Src/stm32f1xx_hal_msp.c **** }
  96              		.loc 1 87 0
  97 0072 03B0     		add	sp, sp, #12
  98              	.LCFI2:
  99              		.cfi_def_cfa_offset 4
 100              		@ sp needed
 101 0074 5DF804FB 		ldr	pc, [sp], #4
 102              	.L4:
 103              		.align	2
 104              	.L3:
 105 0078 00100240 		.word	1073876992
 106              		.cfi_endproc
 107              	.LFE64:
 109              		.section	.text.HAL_ADC_MspInit,"ax",%progbits
 110              		.align	2
 111              		.global	HAL_ADC_MspInit
 112              		.thumb
 113              		.thumb_func
 115              	HAL_ADC_MspInit:
 116              	.LFB65:
  88:./Src/stm32f1xx_hal_msp.c **** 
  89:./Src/stm32f1xx_hal_msp.c **** void HAL_ADC_MspInit(ADC_HandleTypeDef* hadc)
  90:./Src/stm32f1xx_hal_msp.c **** {
 117              		.loc 1 90 0
 118              		.cfi_startproc
 119              		@ args = 0, pretend = 0, frame = 24
 120              		@ frame_needed = 0, uses_anonymous_args = 0
 121              	.LVL8:
 122 0000 30B5     		push	{r4, r5, lr}
 123              	.LCFI3:
 124              		.cfi_def_cfa_offset 12
 125              		.cfi_offset 4, -12
 126              		.cfi_offset 5, -8
 127              		.cfi_offset 14, -4
 128 0002 87B0     		sub	sp, sp, #28
 129              	.LCFI4:
 130              		.cfi_def_cfa_offset 40
 131 0004 0446     		mov	r4, r0
  91:./Src/stm32f1xx_hal_msp.c **** 
  92:./Src/stm32f1xx_hal_msp.c ****   GPIO_InitTypeDef GPIO_InitStruct;
  93:./Src/stm32f1xx_hal_msp.c ****   if(hadc->Instance==ADC1)
 132              		.loc 1 93 0
 133 0006 0368     		ldr	r3, [r0]
 134 0008 324A     		ldr	r2, .L11
 135 000a 9342     		cmp	r3, r2
 136 000c 32D1     		bne	.L6
 137              	.LBB3:
  94:./Src/stm32f1xx_hal_msp.c ****   {
ARM GAS  /tmp/ccPtQ0BP.s 			page 5


  95:./Src/stm32f1xx_hal_msp.c ****   /* USER CODE BEGIN ADC1_MspInit 0 */
  96:./Src/stm32f1xx_hal_msp.c **** 
  97:./Src/stm32f1xx_hal_msp.c ****   /* USER CODE END ADC1_MspInit 0 */
  98:./Src/stm32f1xx_hal_msp.c ****     /* Peripheral clock enable */
  99:./Src/stm32f1xx_hal_msp.c ****     __HAL_RCC_ADC1_CLK_ENABLE();
 138              		.loc 1 99 0
 139 000e 324B     		ldr	r3, .L11+4
 140 0010 9A69     		ldr	r2, [r3, #24]
 141 0012 42F40072 		orr	r2, r2, #512
 142 0016 9A61     		str	r2, [r3, #24]
 143 0018 9B69     		ldr	r3, [r3, #24]
 144 001a 03F40073 		and	r3, r3, #512
 145 001e 0093     		str	r3, [sp]
 146 0020 009B     		ldr	r3, [sp]
 147              	.LBE3:
 100:./Src/stm32f1xx_hal_msp.c **** 
 101:./Src/stm32f1xx_hal_msp.c ****     /**ADC1 GPIO Configuration
 102:./Src/stm32f1xx_hal_msp.c ****     PC0     ------> ADC1_IN10
 103:./Src/stm32f1xx_hal_msp.c ****     PC1     ------> ADC1_IN11
 104:./Src/stm32f1xx_hal_msp.c ****     PC2     ------> ADC1_IN12
 105:./Src/stm32f1xx_hal_msp.c ****     */
 106:./Src/stm32f1xx_hal_msp.c ****     GPIO_InitStruct.Pin = GPIO_PIN_1|GPIO_PIN_2;  //GPIO_PIN_0
 148              		.loc 1 106 0
 149 0022 0623     		movs	r3, #6
 150 0024 0293     		str	r3, [sp, #8]
 107:./Src/stm32f1xx_hal_msp.c ****     GPIO_InitStruct.Mode = GPIO_MODE_ANALOG;
 151              		.loc 1 107 0
 152 0026 0325     		movs	r5, #3
 153 0028 0395     		str	r5, [sp, #12]
 108:./Src/stm32f1xx_hal_msp.c ****     HAL_GPIO_Init(GPIOC, &GPIO_InitStruct);
 154              		.loc 1 108 0
 155 002a 02A9     		add	r1, sp, #8
 156 002c 2B48     		ldr	r0, .L11+8
 157              	.LVL9:
 158 002e FFF7FEFF 		bl	HAL_GPIO_Init
 159              	.LVL10:
 109:./Src/stm32f1xx_hal_msp.c **** 
 110:./Src/stm32f1xx_hal_msp.c ****     GPIO_InitStruct.Pin = GPIO_PIN_2|GPIO_PIN_3;  //GPIO_PIN_0
 160              		.loc 1 110 0
 161 0032 0C23     		movs	r3, #12
 162 0034 0293     		str	r3, [sp, #8]
 111:./Src/stm32f1xx_hal_msp.c ****     GPIO_InitStruct.Mode = GPIO_MODE_ANALOG;
 163              		.loc 1 111 0
 164 0036 0395     		str	r5, [sp, #12]
 112:./Src/stm32f1xx_hal_msp.c ****     HAL_GPIO_Init(GPIOA, &GPIO_InitStruct);
 165              		.loc 1 112 0
 166 0038 02A9     		add	r1, sp, #8
 167 003a 2948     		ldr	r0, .L11+12
 168 003c FFF7FEFF 		bl	HAL_GPIO_Init
 169              	.LVL11:
 113:./Src/stm32f1xx_hal_msp.c **** 
 114:./Src/stm32f1xx_hal_msp.c ****     /* Peripheral DMA init*/
 115:./Src/stm32f1xx_hal_msp.c **** 
 116:./Src/stm32f1xx_hal_msp.c ****     hdma_adc1.Instance = DMA1_Channel1;
 170              		.loc 1 116 0
 171 0040 2848     		ldr	r0, .L11+16
 172 0042 294B     		ldr	r3, .L11+20
ARM GAS  /tmp/ccPtQ0BP.s 			page 6


 173 0044 0360     		str	r3, [r0]
 117:./Src/stm32f1xx_hal_msp.c ****     hdma_adc1.Init.Direction = DMA_PERIPH_TO_MEMORY;
 174              		.loc 1 117 0
 175 0046 0023     		movs	r3, #0
 176 0048 4360     		str	r3, [r0, #4]
 118:./Src/stm32f1xx_hal_msp.c ****     hdma_adc1.Init.PeriphInc = DMA_PINC_DISABLE;
 177              		.loc 1 118 0
 178 004a 8360     		str	r3, [r0, #8]
 119:./Src/stm32f1xx_hal_msp.c ****     hdma_adc1.Init.MemInc = DMA_MINC_ENABLE;
 179              		.loc 1 119 0
 180 004c 8022     		movs	r2, #128
 181 004e C260     		str	r2, [r0, #12]
 120:./Src/stm32f1xx_hal_msp.c ****     hdma_adc1.Init.PeriphDataAlignment = DMA_PDATAALIGN_HALFWORD;
 182              		.loc 1 120 0
 183 0050 4FF48072 		mov	r2, #256
 184 0054 0261     		str	r2, [r0, #16]
 121:./Src/stm32f1xx_hal_msp.c ****     hdma_adc1.Init.MemDataAlignment = DMA_MDATAALIGN_HALFWORD;
 185              		.loc 1 121 0
 186 0056 4FF48062 		mov	r2, #1024
 187 005a 4261     		str	r2, [r0, #20]
 122:./Src/stm32f1xx_hal_msp.c ****     hdma_adc1.Init.Mode = DMA_CIRCULAR;//DMA_NORMAL;
 188              		.loc 1 122 0
 189 005c 2022     		movs	r2, #32
 190 005e 8261     		str	r2, [r0, #24]
 123:./Src/stm32f1xx_hal_msp.c ****     hdma_adc1.Init.Priority = DMA_PRIORITY_LOW;
 191              		.loc 1 123 0
 192 0060 C361     		str	r3, [r0, #28]
 124:./Src/stm32f1xx_hal_msp.c ****     if (HAL_DMA_Init(&hdma_adc1) != HAL_OK)
 193              		.loc 1 124 0
 194 0062 FFF7FEFF 		bl	HAL_DMA_Init
 195              	.LVL12:
 196 0066 08B1     		cbz	r0, .L7
 125:./Src/stm32f1xx_hal_msp.c ****     {
 126:./Src/stm32f1xx_hal_msp.c ****       Error_Handler();
 197              		.loc 1 126 0
 198 0068 FFF7FEFF 		bl	Error_Handler
 199              	.LVL13:
 200              	.L7:
 127:./Src/stm32f1xx_hal_msp.c ****     }
 128:./Src/stm32f1xx_hal_msp.c **** 
 129:./Src/stm32f1xx_hal_msp.c ****     __HAL_LINKDMA(hadc,DMA_Handle,hdma_adc1);
 201              		.loc 1 129 0
 202 006c 1D4B     		ldr	r3, .L11+16
 203 006e 2362     		str	r3, [r4, #32]
 204 0070 5C62     		str	r4, [r3, #36]
 205 0072 2DE0     		b	.L5
 206              	.LVL14:
 207              	.L6:
 130:./Src/stm32f1xx_hal_msp.c **** 
 131:./Src/stm32f1xx_hal_msp.c ****   /* USER CODE BEGIN ADC1_MspInit 1 */
 132:./Src/stm32f1xx_hal_msp.c **** 
 133:./Src/stm32f1xx_hal_msp.c ****   /* USER CODE END ADC1_MspInit 1 */
 134:./Src/stm32f1xx_hal_msp.c ****   }
 135:./Src/stm32f1xx_hal_msp.c ****   else if(hadc->Instance==ADC3)
 208              		.loc 1 135 0
 209 0074 1D4A     		ldr	r2, .L11+24
 210 0076 9342     		cmp	r3, r2
ARM GAS  /tmp/ccPtQ0BP.s 			page 7


 211 0078 2AD1     		bne	.L5
 212              	.LBB4:
 136:./Src/stm32f1xx_hal_msp.c ****   {
 137:./Src/stm32f1xx_hal_msp.c ****   /* USER CODE BEGIN ADC3_MspInit 0 */
 138:./Src/stm32f1xx_hal_msp.c **** 
 139:./Src/stm32f1xx_hal_msp.c ****   /* USER CODE END ADC3_MspInit 0 */
 140:./Src/stm32f1xx_hal_msp.c ****     /* Peripheral clock enable */
 141:./Src/stm32f1xx_hal_msp.c ****     __HAL_RCC_ADC3_CLK_ENABLE();
 213              		.loc 1 141 0
 214 007a 174B     		ldr	r3, .L11+4
 215 007c 9A69     		ldr	r2, [r3, #24]
 216 007e 42F40042 		orr	r2, r2, #32768
 217 0082 9A61     		str	r2, [r3, #24]
 218 0084 9B69     		ldr	r3, [r3, #24]
 219 0086 03F40043 		and	r3, r3, #32768
 220 008a 0193     		str	r3, [sp, #4]
 221 008c 019B     		ldr	r3, [sp, #4]
 222              	.LBE4:
 142:./Src/stm32f1xx_hal_msp.c **** 
 143:./Src/stm32f1xx_hal_msp.c ****     /**ADC3 GPIO Configuration
 144:./Src/stm32f1xx_hal_msp.c ****     PC0     ------> ADC3_IN10
 145:./Src/stm32f1xx_hal_msp.c ****     */
 146:./Src/stm32f1xx_hal_msp.c ****     GPIO_InitStruct.Pin = GPIO_PIN_0;
 223              		.loc 1 146 0
 224 008e 0123     		movs	r3, #1
 225 0090 0293     		str	r3, [sp, #8]
 147:./Src/stm32f1xx_hal_msp.c ****     GPIO_InitStruct.Mode = GPIO_MODE_ANALOG;
 226              		.loc 1 147 0
 227 0092 0323     		movs	r3, #3
 228 0094 0393     		str	r3, [sp, #12]
 148:./Src/stm32f1xx_hal_msp.c ****     HAL_GPIO_Init(GPIOC, &GPIO_InitStruct);
 229              		.loc 1 148 0
 230 0096 02A9     		add	r1, sp, #8
 231 0098 1048     		ldr	r0, .L11+8
 232              	.LVL15:
 233 009a FFF7FEFF 		bl	HAL_GPIO_Init
 234              	.LVL16:
 149:./Src/stm32f1xx_hal_msp.c **** 
 150:./Src/stm32f1xx_hal_msp.c ****     /* Peripheral DMA init*/
 151:./Src/stm32f1xx_hal_msp.c **** 
 152:./Src/stm32f1xx_hal_msp.c ****     hdma_adc3.Instance = DMA2_Channel5;
 235              		.loc 1 152 0
 236 009e 1448     		ldr	r0, .L11+28
 237 00a0 144B     		ldr	r3, .L11+32
 238 00a2 0360     		str	r3, [r0]
 153:./Src/stm32f1xx_hal_msp.c ****     hdma_adc3.Init.Direction = DMA_PERIPH_TO_MEMORY;
 239              		.loc 1 153 0
 240 00a4 0023     		movs	r3, #0
 241 00a6 4360     		str	r3, [r0, #4]
 154:./Src/stm32f1xx_hal_msp.c ****     hdma_adc3.Init.PeriphInc = DMA_PINC_DISABLE;
 242              		.loc 1 154 0
 243 00a8 8360     		str	r3, [r0, #8]
 155:./Src/stm32f1xx_hal_msp.c ****     hdma_adc3.Init.MemInc = DMA_MINC_ENABLE;
 244              		.loc 1 155 0
 245 00aa 8022     		movs	r2, #128
 246 00ac C260     		str	r2, [r0, #12]
 156:./Src/stm32f1xx_hal_msp.c ****     hdma_adc3.Init.PeriphDataAlignment = DMA_PDATAALIGN_HALFWORD;
ARM GAS  /tmp/ccPtQ0BP.s 			page 8


 247              		.loc 1 156 0
 248 00ae 4FF48072 		mov	r2, #256
 249 00b2 0261     		str	r2, [r0, #16]
 157:./Src/stm32f1xx_hal_msp.c ****     hdma_adc3.Init.MemDataAlignment = DMA_MDATAALIGN_HALFWORD;
 250              		.loc 1 157 0
 251 00b4 4FF48062 		mov	r2, #1024
 252 00b8 4261     		str	r2, [r0, #20]
 158:./Src/stm32f1xx_hal_msp.c ****     hdma_adc3.Init.Mode = DMA_CIRCULAR;
 253              		.loc 1 158 0
 254 00ba 2022     		movs	r2, #32
 255 00bc 8261     		str	r2, [r0, #24]
 159:./Src/stm32f1xx_hal_msp.c ****     hdma_adc3.Init.Priority = DMA_PRIORITY_LOW;
 256              		.loc 1 159 0
 257 00be C361     		str	r3, [r0, #28]
 160:./Src/stm32f1xx_hal_msp.c ****     if (HAL_DMA_Init(&hdma_adc3) != HAL_OK)
 258              		.loc 1 160 0
 259 00c0 FFF7FEFF 		bl	HAL_DMA_Init
 260              	.LVL17:
 261 00c4 08B1     		cbz	r0, .L9
 161:./Src/stm32f1xx_hal_msp.c ****     {
 162:./Src/stm32f1xx_hal_msp.c ****       Error_Handler();
 262              		.loc 1 162 0
 263 00c6 FFF7FEFF 		bl	Error_Handler
 264              	.LVL18:
 265              	.L9:
 163:./Src/stm32f1xx_hal_msp.c ****     }
 164:./Src/stm32f1xx_hal_msp.c **** 
 165:./Src/stm32f1xx_hal_msp.c ****     __HAL_LINKDMA(hadc,DMA_Handle,hdma_adc3);
 266              		.loc 1 165 0
 267 00ca 094B     		ldr	r3, .L11+28
 268 00cc 2362     		str	r3, [r4, #32]
 269 00ce 5C62     		str	r4, [r3, #36]
 270              	.L5:
 166:./Src/stm32f1xx_hal_msp.c **** 
 167:./Src/stm32f1xx_hal_msp.c ****   /* USER CODE BEGIN ADC3_MspInit 1 */
 168:./Src/stm32f1xx_hal_msp.c **** 
 169:./Src/stm32f1xx_hal_msp.c ****   /* USER CODE END ADC3_MspInit 1 */
 170:./Src/stm32f1xx_hal_msp.c ****   }
 171:./Src/stm32f1xx_hal_msp.c **** }
 271              		.loc 1 171 0
 272 00d0 07B0     		add	sp, sp, #28
 273              	.LCFI5:
 274              		.cfi_def_cfa_offset 12
 275              		@ sp needed
 276 00d2 30BD     		pop	{r4, r5, pc}
 277              	.LVL19:
 278              	.L12:
 279              		.align	2
 280              	.L11:
 281 00d4 00240140 		.word	1073816576
 282 00d8 00100240 		.word	1073876992
 283 00dc 00100140 		.word	1073811456
 284 00e0 00080140 		.word	1073809408
 285 00e4 00000000 		.word	hdma_adc1
 286 00e8 08000240 		.word	1073872904
 287 00ec 003C0140 		.word	1073822720
 288 00f0 00000000 		.word	hdma_adc3
ARM GAS  /tmp/ccPtQ0BP.s 			page 9


 289 00f4 58040240 		.word	1073874008
 290              		.cfi_endproc
 291              	.LFE65:
 293              		.section	.text.HAL_ADC_MspDeInit,"ax",%progbits
 294              		.align	2
 295              		.global	HAL_ADC_MspDeInit
 296              		.thumb
 297              		.thumb_func
 299              	HAL_ADC_MspDeInit:
 300              	.LFB66:
 172:./Src/stm32f1xx_hal_msp.c **** 
 173:./Src/stm32f1xx_hal_msp.c **** void HAL_ADC_MspDeInit(ADC_HandleTypeDef* hadc)
 174:./Src/stm32f1xx_hal_msp.c **** {
 301              		.loc 1 174 0
 302              		.cfi_startproc
 303              		@ args = 0, pretend = 0, frame = 0
 304              		@ frame_needed = 0, uses_anonymous_args = 0
 305              	.LVL20:
 175:./Src/stm32f1xx_hal_msp.c **** 
 176:./Src/stm32f1xx_hal_msp.c ****   if(hadc->Instance==ADC1)
 306              		.loc 1 176 0
 307 0000 0268     		ldr	r2, [r0]
 308 0002 094B     		ldr	r3, .L17
 309 0004 9A42     		cmp	r2, r3
 310 0006 0ED1     		bne	.L16
 174:./Src/stm32f1xx_hal_msp.c **** 
 311              		.loc 1 174 0
 312 0008 10B5     		push	{r4, lr}
 313              	.LCFI6:
 314              		.cfi_def_cfa_offset 8
 315              		.cfi_offset 4, -8
 316              		.cfi_offset 14, -4
 317 000a 0446     		mov	r4, r0
 177:./Src/stm32f1xx_hal_msp.c ****   {
 178:./Src/stm32f1xx_hal_msp.c ****   /* USER CODE BEGIN ADC1_MspDeInit 0 */
 179:./Src/stm32f1xx_hal_msp.c **** 
 180:./Src/stm32f1xx_hal_msp.c ****   /* USER CODE END ADC1_MspDeInit 0 */
 181:./Src/stm32f1xx_hal_msp.c ****     /* Peripheral clock disable */
 182:./Src/stm32f1xx_hal_msp.c ****     __HAL_RCC_ADC1_CLK_DISABLE();
 318              		.loc 1 182 0
 319 000c 074A     		ldr	r2, .L17+4
 320 000e 9369     		ldr	r3, [r2, #24]
 321 0010 23F40073 		bic	r3, r3, #512
 322 0014 9361     		str	r3, [r2, #24]
 183:./Src/stm32f1xx_hal_msp.c **** 
 184:./Src/stm32f1xx_hal_msp.c ****     /**ADC1 GPIO Configuration
 185:./Src/stm32f1xx_hal_msp.c ****     PC0     ------> ADC1_IN10
 186:./Src/stm32f1xx_hal_msp.c ****     PC1     ------> ADC1_IN11
 187:./Src/stm32f1xx_hal_msp.c ****     PC2     ------> ADC1_IN12
 188:./Src/stm32f1xx_hal_msp.c ****     */
 189:./Src/stm32f1xx_hal_msp.c ****     HAL_GPIO_DeInit(GPIOC, GPIO_PIN_0|GPIO_PIN_1|GPIO_PIN_2);
 323              		.loc 1 189 0
 324 0016 0721     		movs	r1, #7
 325 0018 0548     		ldr	r0, .L17+8
 326              	.LVL21:
 327 001a FFF7FEFF 		bl	HAL_GPIO_DeInit
 328              	.LVL22:
ARM GAS  /tmp/ccPtQ0BP.s 			page 10


 190:./Src/stm32f1xx_hal_msp.c **** 
 191:./Src/stm32f1xx_hal_msp.c ****     /* Peripheral DMA DeInit*/
 192:./Src/stm32f1xx_hal_msp.c ****     HAL_DMA_DeInit(hadc->DMA_Handle);
 329              		.loc 1 192 0
 330 001e 206A     		ldr	r0, [r4, #32]
 331 0020 FFF7FEFF 		bl	HAL_DMA_DeInit
 332              	.LVL23:
 333 0024 10BD     		pop	{r4, pc}
 334              	.LVL24:
 335              	.L16:
 336              	.LCFI7:
 337              		.cfi_def_cfa_offset 0
 338              		.cfi_restore 4
 339              		.cfi_restore 14
 340 0026 7047     		bx	lr
 341              	.L18:
 342              		.align	2
 343              	.L17:
 344 0028 00240140 		.word	1073816576
 345 002c 00100240 		.word	1073876992
 346 0030 00100140 		.word	1073811456
 347              		.cfi_endproc
 348              	.LFE66:
 350              		.section	.text.HAL_I2C_MspInit,"ax",%progbits
 351              		.align	2
 352              		.global	HAL_I2C_MspInit
 353              		.thumb
 354              		.thumb_func
 356              	HAL_I2C_MspInit:
 357              	.LFB67:
 193:./Src/stm32f1xx_hal_msp.c ****   }
 194:./Src/stm32f1xx_hal_msp.c ****   /* USER CODE BEGIN ADC1_MspDeInit 1 */
 195:./Src/stm32f1xx_hal_msp.c **** 
 196:./Src/stm32f1xx_hal_msp.c ****   /* USER CODE END ADC1_MspDeInit 1 */
 197:./Src/stm32f1xx_hal_msp.c **** 
 198:./Src/stm32f1xx_hal_msp.c **** }
 199:./Src/stm32f1xx_hal_msp.c **** 
 200:./Src/stm32f1xx_hal_msp.c **** void HAL_I2C_MspInit(I2C_HandleTypeDef* hi2c)
 201:./Src/stm32f1xx_hal_msp.c **** {
 358              		.loc 1 201 0
 359              		.cfi_startproc
 360              		@ args = 0, pretend = 0, frame = 32
 361              		@ frame_needed = 0, uses_anonymous_args = 0
 362              	.LVL25:
 202:./Src/stm32f1xx_hal_msp.c **** 
 203:./Src/stm32f1xx_hal_msp.c ****   GPIO_InitTypeDef GPIO_InitStruct;
 204:./Src/stm32f1xx_hal_msp.c **** 
 205:./Src/stm32f1xx_hal_msp.c ****   if(hi2c->Instance==I2C2)
 363              		.loc 1 205 0
 364 0000 0268     		ldr	r2, [r0]
 365 0002 374B     		ldr	r3, .L25
 366 0004 9A42     		cmp	r2, r3
 367 0006 6AD1     		bne	.L24
 201:./Src/stm32f1xx_hal_msp.c **** 
 368              		.loc 1 201 0
 369 0008 30B5     		push	{r4, r5, lr}
 370              	.LCFI8:
ARM GAS  /tmp/ccPtQ0BP.s 			page 11


 371              		.cfi_def_cfa_offset 12
 372              		.cfi_offset 4, -12
 373              		.cfi_offset 5, -8
 374              		.cfi_offset 14, -4
 375 000a 89B0     		sub	sp, sp, #36
 376              	.LCFI9:
 377              		.cfi_def_cfa_offset 48
 378 000c 0446     		mov	r4, r0
 379              	.LBB5:
 206:./Src/stm32f1xx_hal_msp.c ****   {
 207:./Src/stm32f1xx_hal_msp.c ****     __HAL_RCC_DMA1_CLK_ENABLE();
 380              		.loc 1 207 0
 381 000e 354D     		ldr	r5, .L25+4
 382 0010 6B69     		ldr	r3, [r5, #20]
 383 0012 43F00103 		orr	r3, r3, #1
 384 0016 6B61     		str	r3, [r5, #20]
 385 0018 6B69     		ldr	r3, [r5, #20]
 386 001a 03F00103 		and	r3, r3, #1
 387 001e 0193     		str	r3, [sp, #4]
 388 0020 019B     		ldr	r3, [sp, #4]
 389              	.LBE5:
 390              	.LBB6:
 208:./Src/stm32f1xx_hal_msp.c ****     __HAL_RCC_GPIOB_CLK_ENABLE();
 391              		.loc 1 208 0
 392 0022 AB69     		ldr	r3, [r5, #24]
 393 0024 43F00803 		orr	r3, r3, #8
 394 0028 AB61     		str	r3, [r5, #24]
 395 002a AB69     		ldr	r3, [r5, #24]
 396 002c 03F00803 		and	r3, r3, #8
 397 0030 0293     		str	r3, [sp, #8]
 398 0032 029B     		ldr	r3, [sp, #8]
 399              	.LBE6:
 209:./Src/stm32f1xx_hal_msp.c ****   /* USER CODE BEGIN I2C2_MspInit 0 */
 210:./Src/stm32f1xx_hal_msp.c **** 
 211:./Src/stm32f1xx_hal_msp.c ****   /* USER CODE END I2C2_MspInit 0 */
 212:./Src/stm32f1xx_hal_msp.c **** 
 213:./Src/stm32f1xx_hal_msp.c ****     /**I2C2 GPIO Configuration
 214:./Src/stm32f1xx_hal_msp.c ****     PB10     ------> I2C2_SCL
 215:./Src/stm32f1xx_hal_msp.c ****     PB11     ------> I2C2_SDA
 216:./Src/stm32f1xx_hal_msp.c ****     */
 217:./Src/stm32f1xx_hal_msp.c ****     GPIO_InitStruct.Pin = GPIO_PIN_10|GPIO_PIN_11;
 400              		.loc 1 217 0
 401 0034 4FF44063 		mov	r3, #3072
 402 0038 0493     		str	r3, [sp, #16]
 218:./Src/stm32f1xx_hal_msp.c ****     GPIO_InitStruct.Mode = GPIO_MODE_AF_OD;
 403              		.loc 1 218 0
 404 003a 1223     		movs	r3, #18
 405 003c 0593     		str	r3, [sp, #20]
 219:./Src/stm32f1xx_hal_msp.c ****     GPIO_InitStruct.Pull = GPIO_PULLUP;
 406              		.loc 1 219 0
 407 003e 0123     		movs	r3, #1
 408 0040 0693     		str	r3, [sp, #24]
 220:./Src/stm32f1xx_hal_msp.c ****     GPIO_InitStruct.Speed = GPIO_SPEED_FREQ_HIGH;
 409              		.loc 1 220 0
 410 0042 0323     		movs	r3, #3
 411 0044 0793     		str	r3, [sp, #28]
 221:./Src/stm32f1xx_hal_msp.c ****     HAL_GPIO_Init(GPIOB, &GPIO_InitStruct);
ARM GAS  /tmp/ccPtQ0BP.s 			page 12


 412              		.loc 1 221 0
 413 0046 04A9     		add	r1, sp, #16
 414 0048 2748     		ldr	r0, .L25+8
 415              	.LVL26:
 416 004a FFF7FEFF 		bl	HAL_GPIO_Init
 417              	.LVL27:
 418              	.LBB7:
 222:./Src/stm32f1xx_hal_msp.c **** 
 223:./Src/stm32f1xx_hal_msp.c ****     /* Peripheral clock enable */
 224:./Src/stm32f1xx_hal_msp.c ****     __HAL_RCC_I2C2_CLK_ENABLE();
 419              		.loc 1 224 0
 420 004e EB69     		ldr	r3, [r5, #28]
 421 0050 43F48003 		orr	r3, r3, #4194304
 422 0054 EB61     		str	r3, [r5, #28]
 423 0056 EB69     		ldr	r3, [r5, #28]
 424 0058 03F48003 		and	r3, r3, #4194304
 425 005c 0393     		str	r3, [sp, #12]
 426 005e 039B     		ldr	r3, [sp, #12]
 427              	.LBE7:
 225:./Src/stm32f1xx_hal_msp.c **** 
 226:./Src/stm32f1xx_hal_msp.c ****     /* Peripheral DMA init*/
 227:./Src/stm32f1xx_hal_msp.c **** 
 228:./Src/stm32f1xx_hal_msp.c ****     hdma_i2c2_rx.Instance = DMA1_Channel5;
 428              		.loc 1 228 0
 429 0060 2248     		ldr	r0, .L25+12
 430 0062 234B     		ldr	r3, .L25+16
 431 0064 0360     		str	r3, [r0]
 229:./Src/stm32f1xx_hal_msp.c ****     hdma_i2c2_rx.Init.Direction = DMA_PERIPH_TO_MEMORY;
 432              		.loc 1 229 0
 433 0066 0023     		movs	r3, #0
 434 0068 4360     		str	r3, [r0, #4]
 230:./Src/stm32f1xx_hal_msp.c ****     hdma_i2c2_rx.Init.PeriphInc = DMA_PINC_DISABLE;
 435              		.loc 1 230 0
 436 006a 8360     		str	r3, [r0, #8]
 231:./Src/stm32f1xx_hal_msp.c ****     hdma_i2c2_rx.Init.MemInc = DMA_MINC_ENABLE;
 437              		.loc 1 231 0
 438 006c 8022     		movs	r2, #128
 439 006e C260     		str	r2, [r0, #12]
 232:./Src/stm32f1xx_hal_msp.c ****     hdma_i2c2_rx.Init.PeriphDataAlignment = DMA_PDATAALIGN_BYTE;
 440              		.loc 1 232 0
 441 0070 0361     		str	r3, [r0, #16]
 233:./Src/stm32f1xx_hal_msp.c ****     hdma_i2c2_rx.Init.MemDataAlignment = DMA_MDATAALIGN_BYTE;
 442              		.loc 1 233 0
 443 0072 4361     		str	r3, [r0, #20]
 234:./Src/stm32f1xx_hal_msp.c ****     hdma_i2c2_rx.Init.Mode = DMA_NORMAL;
 444              		.loc 1 234 0
 445 0074 8361     		str	r3, [r0, #24]
 235:./Src/stm32f1xx_hal_msp.c ****     hdma_i2c2_rx.Init.Priority = DMA_PRIORITY_MEDIUM;
 446              		.loc 1 235 0
 447 0076 4FF48053 		mov	r3, #4096
 448 007a C361     		str	r3, [r0, #28]
 236:./Src/stm32f1xx_hal_msp.c ****     if (HAL_DMA_Init(&hdma_i2c2_rx) != HAL_OK)
 449              		.loc 1 236 0
 450 007c FFF7FEFF 		bl	HAL_DMA_Init
 451              	.LVL28:
 452 0080 08B1     		cbz	r0, .L21
 237:./Src/stm32f1xx_hal_msp.c ****     {
ARM GAS  /tmp/ccPtQ0BP.s 			page 13


 238:./Src/stm32f1xx_hal_msp.c ****       Error_Handler();
 453              		.loc 1 238 0
 454 0082 FFF7FEFF 		bl	Error_Handler
 455              	.LVL29:
 456              	.L21:
 239:./Src/stm32f1xx_hal_msp.c ****     }
 240:./Src/stm32f1xx_hal_msp.c **** 
 241:./Src/stm32f1xx_hal_msp.c ****     __HAL_LINKDMA(hi2c,hdmarx,hdma_i2c2_rx);
 457              		.loc 1 241 0
 458 0086 194B     		ldr	r3, .L25+12
 459 0088 2363     		str	r3, [r4, #48]
 460 008a 5C62     		str	r4, [r3, #36]
 242:./Src/stm32f1xx_hal_msp.c **** 
 243:./Src/stm32f1xx_hal_msp.c ****     hdma_i2c2_tx.Instance = DMA1_Channel4;
 461              		.loc 1 243 0
 462 008c 1948     		ldr	r0, .L25+20
 463 008e 1A4B     		ldr	r3, .L25+24
 464 0090 0360     		str	r3, [r0]
 244:./Src/stm32f1xx_hal_msp.c ****     hdma_i2c2_tx.Init.Direction = DMA_MEMORY_TO_PERIPH;
 465              		.loc 1 244 0
 466 0092 1023     		movs	r3, #16
 467 0094 4360     		str	r3, [r0, #4]
 245:./Src/stm32f1xx_hal_msp.c ****     hdma_i2c2_tx.Init.PeriphInc = DMA_PINC_DISABLE;
 468              		.loc 1 245 0
 469 0096 0023     		movs	r3, #0
 470 0098 8360     		str	r3, [r0, #8]
 246:./Src/stm32f1xx_hal_msp.c ****     hdma_i2c2_tx.Init.MemInc = DMA_MINC_ENABLE;
 471              		.loc 1 246 0
 472 009a 8022     		movs	r2, #128
 473 009c C260     		str	r2, [r0, #12]
 247:./Src/stm32f1xx_hal_msp.c ****     hdma_i2c2_tx.Init.PeriphDataAlignment = DMA_PDATAALIGN_BYTE;
 474              		.loc 1 247 0
 475 009e 0361     		str	r3, [r0, #16]
 248:./Src/stm32f1xx_hal_msp.c ****     hdma_i2c2_tx.Init.MemDataAlignment = DMA_MDATAALIGN_BYTE;
 476              		.loc 1 248 0
 477 00a0 4361     		str	r3, [r0, #20]
 249:./Src/stm32f1xx_hal_msp.c ****     hdma_i2c2_tx.Init.Mode = DMA_NORMAL;
 478              		.loc 1 249 0
 479 00a2 8361     		str	r3, [r0, #24]
 250:./Src/stm32f1xx_hal_msp.c ****     hdma_i2c2_tx.Init.Priority = DMA_PRIORITY_MEDIUM;
 480              		.loc 1 250 0
 481 00a4 4FF48053 		mov	r3, #4096
 482 00a8 C361     		str	r3, [r0, #28]
 251:./Src/stm32f1xx_hal_msp.c ****     if (HAL_DMA_Init(&hdma_i2c2_tx) != HAL_OK)
 483              		.loc 1 251 0
 484 00aa FFF7FEFF 		bl	HAL_DMA_Init
 485              	.LVL30:
 486 00ae 08B1     		cbz	r0, .L22
 252:./Src/stm32f1xx_hal_msp.c ****     {
 253:./Src/stm32f1xx_hal_msp.c ****       Error_Handler();
 487              		.loc 1 253 0
 488 00b0 FFF7FEFF 		bl	Error_Handler
 489              	.LVL31:
 490              	.L22:
 254:./Src/stm32f1xx_hal_msp.c ****     }
 255:./Src/stm32f1xx_hal_msp.c **** 
 256:./Src/stm32f1xx_hal_msp.c ****     __HAL_LINKDMA(hi2c,hdmatx,hdma_i2c2_tx);
ARM GAS  /tmp/ccPtQ0BP.s 			page 14


 491              		.loc 1 256 0
 492 00b4 0F4B     		ldr	r3, .L25+20
 493 00b6 E362     		str	r3, [r4, #44]
 494 00b8 5C62     		str	r4, [r3, #36]
 257:./Src/stm32f1xx_hal_msp.c **** 
 258:./Src/stm32f1xx_hal_msp.c ****     /* Peripheral interrupt init */
 259:./Src/stm32f1xx_hal_msp.c ****     HAL_NVIC_SetPriority(I2C2_EV_IRQn, 0, 0);
 495              		.loc 1 259 0
 496 00ba 0022     		movs	r2, #0
 497 00bc 1146     		mov	r1, r2
 498 00be 2120     		movs	r0, #33
 499 00c0 FFF7FEFF 		bl	HAL_NVIC_SetPriority
 500              	.LVL32:
 260:./Src/stm32f1xx_hal_msp.c ****     HAL_NVIC_EnableIRQ(I2C2_EV_IRQn);
 501              		.loc 1 260 0
 502 00c4 2120     		movs	r0, #33
 503 00c6 FFF7FEFF 		bl	HAL_NVIC_EnableIRQ
 504              	.LVL33:
 261:./Src/stm32f1xx_hal_msp.c ****     HAL_NVIC_SetPriority(I2C2_ER_IRQn, 0, 0);
 505              		.loc 1 261 0
 506 00ca 0022     		movs	r2, #0
 507 00cc 1146     		mov	r1, r2
 508 00ce 2220     		movs	r0, #34
 509 00d0 FFF7FEFF 		bl	HAL_NVIC_SetPriority
 510              	.LVL34:
 262:./Src/stm32f1xx_hal_msp.c ****     HAL_NVIC_EnableIRQ(I2C2_ER_IRQn);
 511              		.loc 1 262 0
 512 00d4 2220     		movs	r0, #34
 513 00d6 FFF7FEFF 		bl	HAL_NVIC_EnableIRQ
 514              	.LVL35:
 263:./Src/stm32f1xx_hal_msp.c ****   /* USER CODE BEGIN I2C2_MspInit 1 */
 264:./Src/stm32f1xx_hal_msp.c **** 
 265:./Src/stm32f1xx_hal_msp.c ****   /* USER CODE END I2C2_MspInit 1 */
 266:./Src/stm32f1xx_hal_msp.c ****   }
 267:./Src/stm32f1xx_hal_msp.c **** 
 268:./Src/stm32f1xx_hal_msp.c **** }
 515              		.loc 1 268 0
 516 00da 09B0     		add	sp, sp, #36
 517              	.LCFI10:
 518              		.cfi_def_cfa_offset 12
 519              		@ sp needed
 520 00dc 30BD     		pop	{r4, r5, pc}
 521              	.LVL36:
 522              	.L24:
 523              	.LCFI11:
 524              		.cfi_def_cfa_offset 0
 525              		.cfi_restore 4
 526              		.cfi_restore 5
 527              		.cfi_restore 14
 528 00de 7047     		bx	lr
 529              	.L26:
 530              		.align	2
 531              	.L25:
 532 00e0 00580040 		.word	1073764352
 533 00e4 00100240 		.word	1073876992
 534 00e8 000C0140 		.word	1073810432
 535 00ec 00000000 		.word	hdma_i2c2_rx
ARM GAS  /tmp/ccPtQ0BP.s 			page 15


 536 00f0 58000240 		.word	1073872984
 537 00f4 00000000 		.word	hdma_i2c2_tx
 538 00f8 44000240 		.word	1073872964
 539              		.cfi_endproc
 540              	.LFE67:
 542              		.section	.text.HAL_I2C_MspDeInit,"ax",%progbits
 543              		.align	2
 544              		.global	HAL_I2C_MspDeInit
 545              		.thumb
 546              		.thumb_func
 548              	HAL_I2C_MspDeInit:
 549              	.LFB68:
 269:./Src/stm32f1xx_hal_msp.c **** 
 270:./Src/stm32f1xx_hal_msp.c **** void HAL_I2C_MspDeInit(I2C_HandleTypeDef* hi2c)
 271:./Src/stm32f1xx_hal_msp.c **** {
 550              		.loc 1 271 0
 551              		.cfi_startproc
 552              		@ args = 0, pretend = 0, frame = 0
 553              		@ frame_needed = 0, uses_anonymous_args = 0
 554              	.LVL37:
 272:./Src/stm32f1xx_hal_msp.c **** 
 273:./Src/stm32f1xx_hal_msp.c ****   if(hi2c->Instance==I2C2)
 555              		.loc 1 273 0
 556 0000 0268     		ldr	r2, [r0]
 557 0002 0D4B     		ldr	r3, .L31
 558 0004 9A42     		cmp	r2, r3
 559 0006 15D1     		bne	.L30
 271:./Src/stm32f1xx_hal_msp.c **** 
 560              		.loc 1 271 0
 561 0008 10B5     		push	{r4, lr}
 562              	.LCFI12:
 563              		.cfi_def_cfa_offset 8
 564              		.cfi_offset 4, -8
 565              		.cfi_offset 14, -4
 566 000a 0446     		mov	r4, r0
 274:./Src/stm32f1xx_hal_msp.c ****   {
 275:./Src/stm32f1xx_hal_msp.c ****   /* USER CODE BEGIN I2C2_MspDeInit 0 */
 276:./Src/stm32f1xx_hal_msp.c **** 
 277:./Src/stm32f1xx_hal_msp.c ****   /* USER CODE END I2C2_MspDeInit 0 */
 278:./Src/stm32f1xx_hal_msp.c ****     /* Peripheral clock disable */
 279:./Src/stm32f1xx_hal_msp.c ****     __HAL_RCC_I2C2_CLK_DISABLE();
 567              		.loc 1 279 0
 568 000c 0B4A     		ldr	r2, .L31+4
 569 000e D369     		ldr	r3, [r2, #28]
 570 0010 23F48003 		bic	r3, r3, #4194304
 571 0014 D361     		str	r3, [r2, #28]
 280:./Src/stm32f1xx_hal_msp.c **** 
 281:./Src/stm32f1xx_hal_msp.c ****     /**I2C2 GPIO Configuration
 282:./Src/stm32f1xx_hal_msp.c ****     PB10     ------> I2C2_SCL
 283:./Src/stm32f1xx_hal_msp.c ****     PB11     ------> I2C2_SDA
 284:./Src/stm32f1xx_hal_msp.c ****     */
 285:./Src/stm32f1xx_hal_msp.c ****     HAL_GPIO_DeInit(GPIOB, GPIO_PIN_10|GPIO_PIN_11);
 572              		.loc 1 285 0
 573 0016 4FF44061 		mov	r1, #3072
 574 001a 0948     		ldr	r0, .L31+8
 575              	.LVL38:
 576 001c FFF7FEFF 		bl	HAL_GPIO_DeInit
ARM GAS  /tmp/ccPtQ0BP.s 			page 16


 577              	.LVL39:
 286:./Src/stm32f1xx_hal_msp.c **** 
 287:./Src/stm32f1xx_hal_msp.c ****     /* Peripheral DMA DeInit*/
 288:./Src/stm32f1xx_hal_msp.c ****     HAL_DMA_DeInit(hi2c->hdmarx);
 578              		.loc 1 288 0
 579 0020 206B     		ldr	r0, [r4, #48]
 580 0022 FFF7FEFF 		bl	HAL_DMA_DeInit
 581              	.LVL40:
 289:./Src/stm32f1xx_hal_msp.c ****     HAL_DMA_DeInit(hi2c->hdmatx);
 582              		.loc 1 289 0
 583 0026 E06A     		ldr	r0, [r4, #44]
 584 0028 FFF7FEFF 		bl	HAL_DMA_DeInit
 585              	.LVL41:
 290:./Src/stm32f1xx_hal_msp.c **** 
 291:./Src/stm32f1xx_hal_msp.c ****     /* Peripheral interrupt DeInit*/
 292:./Src/stm32f1xx_hal_msp.c ****     HAL_NVIC_DisableIRQ(I2C2_ER_IRQn);
 586              		.loc 1 292 0
 587 002c 2220     		movs	r0, #34
 588 002e FFF7FEFF 		bl	HAL_NVIC_DisableIRQ
 589              	.LVL42:
 590 0032 10BD     		pop	{r4, pc}
 591              	.LVL43:
 592              	.L30:
 593              	.LCFI13:
 594              		.cfi_def_cfa_offset 0
 595              		.cfi_restore 4
 596              		.cfi_restore 14
 597 0034 7047     		bx	lr
 598              	.L32:
 599 0036 00BF     		.align	2
 600              	.L31:
 601 0038 00580040 		.word	1073764352
 602 003c 00100240 		.word	1073876992
 603 0040 000C0140 		.word	1073810432
 604              		.cfi_endproc
 605              	.LFE68:
 607              		.section	.text.HAL_TIM_PWM_MspDeInit,"ax",%progbits
 608              		.align	2
 609              		.global	HAL_TIM_PWM_MspDeInit
 610              		.thumb
 611              		.thumb_func
 613              	HAL_TIM_PWM_MspDeInit:
 614              	.LFB69:
 293:./Src/stm32f1xx_hal_msp.c **** 
 294:./Src/stm32f1xx_hal_msp.c ****   }
 295:./Src/stm32f1xx_hal_msp.c ****   /* USER CODE BEGIN I2C2_MspDeInit 1 */
 296:./Src/stm32f1xx_hal_msp.c **** 
 297:./Src/stm32f1xx_hal_msp.c ****   /* USER CODE END I2C2_MspDeInit 1 */
 298:./Src/stm32f1xx_hal_msp.c **** 
 299:./Src/stm32f1xx_hal_msp.c **** }
 300:./Src/stm32f1xx_hal_msp.c **** 
 301:./Src/stm32f1xx_hal_msp.c **** 
 302:./Src/stm32f1xx_hal_msp.c **** 
 303:./Src/stm32f1xx_hal_msp.c **** void HAL_TIM_PWM_MspDeInit(TIM_HandleTypeDef* htim_pwm)
 304:./Src/stm32f1xx_hal_msp.c **** {
 615              		.loc 1 304 0
 616              		.cfi_startproc
ARM GAS  /tmp/ccPtQ0BP.s 			page 17


 617              		@ args = 0, pretend = 0, frame = 0
 618              		@ frame_needed = 0, uses_anonymous_args = 0
 619              	.LVL44:
 620 0000 08B5     		push	{r3, lr}
 621              	.LCFI14:
 622              		.cfi_def_cfa_offset 8
 623              		.cfi_offset 3, -8
 624              		.cfi_offset 14, -4
 305:./Src/stm32f1xx_hal_msp.c **** 
 306:./Src/stm32f1xx_hal_msp.c ****   if(htim_pwm->Instance==TIM1)
 625              		.loc 1 306 0
 626 0002 0368     		ldr	r3, [r0]
 627 0004 0C4A     		ldr	r2, .L37
 628 0006 9342     		cmp	r3, r2
 629 0008 09D1     		bne	.L34
 307:./Src/stm32f1xx_hal_msp.c ****   {
 308:./Src/stm32f1xx_hal_msp.c ****   /* USER CODE BEGIN TIM1_MspDeInit 0 */
 309:./Src/stm32f1xx_hal_msp.c **** 
 310:./Src/stm32f1xx_hal_msp.c ****   /* USER CODE END TIM1_MspDeInit 0 */
 311:./Src/stm32f1xx_hal_msp.c ****     /* Peripheral clock disable */
 312:./Src/stm32f1xx_hal_msp.c ****     __HAL_RCC_TIM1_CLK_DISABLE();
 630              		.loc 1 312 0
 631 000a 02F56442 		add	r2, r2, #58368
 632 000e 9369     		ldr	r3, [r2, #24]
 633 0010 23F40063 		bic	r3, r3, #2048
 634 0014 9361     		str	r3, [r2, #24]
 313:./Src/stm32f1xx_hal_msp.c **** 
 314:./Src/stm32f1xx_hal_msp.c ****     /* Peripheral interrupt DeInit*/
 315:./Src/stm32f1xx_hal_msp.c ****     HAL_NVIC_DisableIRQ(TIM1_CC_IRQn);
 635              		.loc 1 315 0
 636 0016 1B20     		movs	r0, #27
 637              	.LVL45:
 638 0018 FFF7FEFF 		bl	HAL_NVIC_DisableIRQ
 639              	.LVL46:
 640 001c 08BD     		pop	{r3, pc}
 641              	.LVL47:
 642              	.L34:
 316:./Src/stm32f1xx_hal_msp.c **** 
 317:./Src/stm32f1xx_hal_msp.c ****   /* USER CODE BEGIN TIM1_MspDeInit 1 */
 318:./Src/stm32f1xx_hal_msp.c **** 
 319:./Src/stm32f1xx_hal_msp.c ****   /* USER CODE END TIM1_MspDeInit 1 */
 320:./Src/stm32f1xx_hal_msp.c ****   }
 321:./Src/stm32f1xx_hal_msp.c ****   else if(htim_pwm->Instance==TIM8)
 643              		.loc 1 321 0
 644 001e 074A     		ldr	r2, .L37+4
 645 0020 9342     		cmp	r3, r2
 646 0022 08D1     		bne	.L33
 322:./Src/stm32f1xx_hal_msp.c ****   {
 323:./Src/stm32f1xx_hal_msp.c ****   /* USER CODE BEGIN TIM8_MspDeInit 0 */
 324:./Src/stm32f1xx_hal_msp.c **** 
 325:./Src/stm32f1xx_hal_msp.c ****   /* USER CODE END TIM8_MspDeInit 0 */
 326:./Src/stm32f1xx_hal_msp.c ****     /* Peripheral clock disable */
 327:./Src/stm32f1xx_hal_msp.c ****     __HAL_RCC_TIM8_CLK_DISABLE();
 647              		.loc 1 327 0
 648 0024 02F55C42 		add	r2, r2, #56320
 649 0028 9369     		ldr	r3, [r2, #24]
 650 002a 23F40053 		bic	r3, r3, #8192
ARM GAS  /tmp/ccPtQ0BP.s 			page 18


 651 002e 9361     		str	r3, [r2, #24]
 328:./Src/stm32f1xx_hal_msp.c **** 
 329:./Src/stm32f1xx_hal_msp.c ****     /* Peripheral interrupt DeInit*/
 330:./Src/stm32f1xx_hal_msp.c ****     HAL_NVIC_DisableIRQ(TIM8_CC_IRQn);
 652              		.loc 1 330 0
 653 0030 2E20     		movs	r0, #46
 654              	.LVL48:
 655 0032 FFF7FEFF 		bl	HAL_NVIC_DisableIRQ
 656              	.LVL49:
 657              	.L33:
 658 0036 08BD     		pop	{r3, pc}
 659              	.L38:
 660              		.align	2
 661              	.L37:
 662 0038 002C0140 		.word	1073818624
 663 003c 00340140 		.word	1073820672
 664              		.cfi_endproc
 665              	.LFE69:
 667              		.section	.text.HAL_UART_MspInit,"ax",%progbits
 668              		.align	2
 669              		.global	HAL_UART_MspInit
 670              		.thumb
 671              		.thumb_func
 673              	HAL_UART_MspInit:
 674              	.LFB70:
 331:./Src/stm32f1xx_hal_msp.c **** 
 332:./Src/stm32f1xx_hal_msp.c ****   /* USER CODE BEGIN TIM8_MspDeInit 1 */
 333:./Src/stm32f1xx_hal_msp.c **** 
 334:./Src/stm32f1xx_hal_msp.c ****   /* USER CODE END TIM8_MspDeInit 1 */
 335:./Src/stm32f1xx_hal_msp.c ****   }
 336:./Src/stm32f1xx_hal_msp.c **** 
 337:./Src/stm32f1xx_hal_msp.c **** }
 338:./Src/stm32f1xx_hal_msp.c **** 
 339:./Src/stm32f1xx_hal_msp.c **** void HAL_UART_MspInit(UART_HandleTypeDef* huart)
 340:./Src/stm32f1xx_hal_msp.c **** {
 675              		.loc 1 340 0
 676              		.cfi_startproc
 677              		@ args = 0, pretend = 0, frame = 32
 678              		@ frame_needed = 0, uses_anonymous_args = 0
 679              	.LVL50:
 341:./Src/stm32f1xx_hal_msp.c **** 
 342:./Src/stm32f1xx_hal_msp.c ****   GPIO_InitTypeDef GPIO_InitStruct;
 343:./Src/stm32f1xx_hal_msp.c ****   if(huart->Instance==USART3)
 680              		.loc 1 343 0
 681 0000 0268     		ldr	r2, [r0]
 682 0002 334B     		ldr	r3, .L45
 683 0004 9A42     		cmp	r2, r3
 684 0006 61D1     		bne	.L44
 340:./Src/stm32f1xx_hal_msp.c **** 
 685              		.loc 1 340 0
 686 0008 70B5     		push	{r4, r5, r6, lr}
 687              	.LCFI15:
 688              		.cfi_def_cfa_offset 16
 689              		.cfi_offset 4, -16
 690              		.cfi_offset 5, -12
 691              		.cfi_offset 6, -8
 692              		.cfi_offset 14, -4
ARM GAS  /tmp/ccPtQ0BP.s 			page 19


 693 000a 88B0     		sub	sp, sp, #32
 694              	.LCFI16:
 695              		.cfi_def_cfa_offset 48
 696 000c 0446     		mov	r4, r0
 697              	.LBB8:
 344:./Src/stm32f1xx_hal_msp.c ****   {
 345:./Src/stm32f1xx_hal_msp.c ****      __HAL_RCC_DMA1_CLK_ENABLE();
 698              		.loc 1 345 0
 699 000e 03F5E433 		add	r3, r3, #116736
 700 0012 5A69     		ldr	r2, [r3, #20]
 701 0014 42F00102 		orr	r2, r2, #1
 702 0018 5A61     		str	r2, [r3, #20]
 703 001a 5A69     		ldr	r2, [r3, #20]
 704 001c 02F00102 		and	r2, r2, #1
 705 0020 0192     		str	r2, [sp, #4]
 706 0022 019A     		ldr	r2, [sp, #4]
 707              	.LBE8:
 708              	.LBB9:
 346:./Src/stm32f1xx_hal_msp.c ****   /* USER CODE BEGIN USART2_MspInit 0 */
 347:./Src/stm32f1xx_hal_msp.c ****     __HAL_RCC_GPIOB_CLK_ENABLE();
 709              		.loc 1 347 0
 710 0024 9A69     		ldr	r2, [r3, #24]
 711 0026 42F00802 		orr	r2, r2, #8
 712 002a 9A61     		str	r2, [r3, #24]
 713 002c 9A69     		ldr	r2, [r3, #24]
 714 002e 02F00802 		and	r2, r2, #8
 715 0032 0292     		str	r2, [sp, #8]
 716 0034 029A     		ldr	r2, [sp, #8]
 717              	.LBE9:
 718              	.LBB10:
 348:./Src/stm32f1xx_hal_msp.c ****   /* USER CODE END USART2_MspInit 0 */
 349:./Src/stm32f1xx_hal_msp.c ****     /* Peripheral clock enable */
 350:./Src/stm32f1xx_hal_msp.c ****     __HAL_RCC_USART3_CLK_ENABLE();
 719              		.loc 1 350 0
 720 0036 DA69     		ldr	r2, [r3, #28]
 721 0038 42F48022 		orr	r2, r2, #262144
 722 003c DA61     		str	r2, [r3, #28]
 723 003e DB69     		ldr	r3, [r3, #28]
 724 0040 03F48023 		and	r3, r3, #262144
 725 0044 0393     		str	r3, [sp, #12]
 726 0046 039B     		ldr	r3, [sp, #12]
 727              	.LBE10:
 351:./Src/stm32f1xx_hal_msp.c **** 
 352:./Src/stm32f1xx_hal_msp.c ****     GPIO_InitStruct.Pull = GPIO_PULLUP; //GPIO_NOPULL;
 728              		.loc 1 352 0
 729 0048 0123     		movs	r3, #1
 730 004a 0693     		str	r3, [sp, #24]
 353:./Src/stm32f1xx_hal_msp.c ****     GPIO_InitStruct.Pin = GPIO_PIN_10;
 731              		.loc 1 353 0
 732 004c 4FF48063 		mov	r3, #1024
 733 0050 0493     		str	r3, [sp, #16]
 354:./Src/stm32f1xx_hal_msp.c ****     GPIO_InitStruct.Mode = GPIO_MODE_AF_PP;
 734              		.loc 1 354 0
 735 0052 0223     		movs	r3, #2
 736 0054 0593     		str	r3, [sp, #20]
 355:./Src/stm32f1xx_hal_msp.c ****     GPIO_InitStruct.Speed = GPIO_SPEED_FREQ_HIGH;
 737              		.loc 1 355 0
ARM GAS  /tmp/ccPtQ0BP.s 			page 20


 738 0056 0323     		movs	r3, #3
 739 0058 0793     		str	r3, [sp, #28]
 356:./Src/stm32f1xx_hal_msp.c ****     HAL_GPIO_Init(GPIOB, &GPIO_InitStruct);
 740              		.loc 1 356 0
 741 005a 1E4E     		ldr	r6, .L45+4
 742 005c 04A9     		add	r1, sp, #16
 743 005e 3046     		mov	r0, r6
 744              	.LVL51:
 745 0060 FFF7FEFF 		bl	HAL_GPIO_Init
 746              	.LVL52:
 357:./Src/stm32f1xx_hal_msp.c **** 
 358:./Src/stm32f1xx_hal_msp.c ****     GPIO_InitStruct.Pin = GPIO_PIN_11;
 747              		.loc 1 358 0
 748 0064 4FF40063 		mov	r3, #2048
 749 0068 0493     		str	r3, [sp, #16]
 359:./Src/stm32f1xx_hal_msp.c ****     GPIO_InitStruct.Mode = GPIO_MODE_INPUT; //GPIO_MODE_AF_PP;
 750              		.loc 1 359 0
 751 006a 0025     		movs	r5, #0
 752 006c 0595     		str	r5, [sp, #20]
 360:./Src/stm32f1xx_hal_msp.c ****    // GPIO_InitStruct.Pull = GPIO_NOPULL;
 361:./Src/stm32f1xx_hal_msp.c ****     HAL_GPIO_Init(GPIOB, &GPIO_InitStruct);
 753              		.loc 1 361 0
 754 006e 04A9     		add	r1, sp, #16
 755 0070 3046     		mov	r0, r6
 756 0072 FFF7FEFF 		bl	HAL_GPIO_Init
 757              	.LVL53:
 362:./Src/stm32f1xx_hal_msp.c **** 
 363:./Src/stm32f1xx_hal_msp.c ****     /* Peripheral DMA init*/
 364:./Src/stm32f1xx_hal_msp.c **** 
 365:./Src/stm32f1xx_hal_msp.c ****     hdma_usart3_rx.Instance = DMA1_Channel3;
 758              		.loc 1 365 0
 759 0076 1848     		ldr	r0, .L45+8
 760 0078 184B     		ldr	r3, .L45+12
 761 007a 0360     		str	r3, [r0]
 366:./Src/stm32f1xx_hal_msp.c ****     hdma_usart3_rx.Init.Direction = DMA_PERIPH_TO_MEMORY;
 762              		.loc 1 366 0
 763 007c 4560     		str	r5, [r0, #4]
 367:./Src/stm32f1xx_hal_msp.c ****     hdma_usart3_rx.Init.PeriphInc = DMA_PINC_DISABLE;
 764              		.loc 1 367 0
 765 007e 8560     		str	r5, [r0, #8]
 368:./Src/stm32f1xx_hal_msp.c ****     hdma_usart3_rx.Init.MemInc = DMA_MINC_ENABLE;
 766              		.loc 1 368 0
 767 0080 8023     		movs	r3, #128
 768 0082 C360     		str	r3, [r0, #12]
 369:./Src/stm32f1xx_hal_msp.c ****     hdma_usart3_rx.Init.PeriphDataAlignment = DMA_PDATAALIGN_BYTE;
 769              		.loc 1 369 0
 770 0084 0561     		str	r5, [r0, #16]
 370:./Src/stm32f1xx_hal_msp.c ****     hdma_usart3_rx.Init.MemDataAlignment = DMA_MDATAALIGN_BYTE;
 771              		.loc 1 370 0
 772 0086 4561     		str	r5, [r0, #20]
 371:./Src/stm32f1xx_hal_msp.c ****     hdma_usart3_rx.Init.Mode = DMA_CIRCULAR; //DMA_NORMAL;
 773              		.loc 1 371 0
 774 0088 2023     		movs	r3, #32
 775 008a 8361     		str	r3, [r0, #24]
 372:./Src/stm32f1xx_hal_msp.c ****     hdma_usart3_rx.Init.Priority = DMA_PRIORITY_LOW;
 776              		.loc 1 372 0
 777 008c C561     		str	r5, [r0, #28]
ARM GAS  /tmp/ccPtQ0BP.s 			page 21


 373:./Src/stm32f1xx_hal_msp.c ****     if (HAL_DMA_Init(&hdma_usart3_rx) != HAL_OK)
 778              		.loc 1 373 0
 779 008e FFF7FEFF 		bl	HAL_DMA_Init
 780              	.LVL54:
 781 0092 08B1     		cbz	r0, .L41
 374:./Src/stm32f1xx_hal_msp.c ****     {
 375:./Src/stm32f1xx_hal_msp.c ****       Error_Handler();
 782              		.loc 1 375 0
 783 0094 FFF7FEFF 		bl	Error_Handler
 784              	.LVL55:
 785              	.L41:
 376:./Src/stm32f1xx_hal_msp.c ****     }
 377:./Src/stm32f1xx_hal_msp.c **** 
 378:./Src/stm32f1xx_hal_msp.c ****     __HAL_LINKDMA(huart,hdmarx,hdma_usart3_rx);
 786              		.loc 1 378 0
 787 0098 0F4B     		ldr	r3, .L45+8
 788 009a 6363     		str	r3, [r4, #52]
 789 009c 5C62     		str	r4, [r3, #36]
 379:./Src/stm32f1xx_hal_msp.c **** 
 380:./Src/stm32f1xx_hal_msp.c ****     hdma_usart3_tx.Instance = DMA1_Channel2;
 790              		.loc 1 380 0
 791 009e 1048     		ldr	r0, .L45+16
 792 00a0 104B     		ldr	r3, .L45+20
 793 00a2 0360     		str	r3, [r0]
 381:./Src/stm32f1xx_hal_msp.c ****     hdma_usart3_tx.Init.Direction = DMA_MEMORY_TO_PERIPH;
 794              		.loc 1 381 0
 795 00a4 1023     		movs	r3, #16
 796 00a6 4360     		str	r3, [r0, #4]
 382:./Src/stm32f1xx_hal_msp.c ****     hdma_usart3_tx.Init.PeriphInc = DMA_PINC_DISABLE;
 797              		.loc 1 382 0
 798 00a8 0023     		movs	r3, #0
 799 00aa 8360     		str	r3, [r0, #8]
 383:./Src/stm32f1xx_hal_msp.c ****     hdma_usart3_tx.Init.MemInc = DMA_MINC_ENABLE;
 800              		.loc 1 383 0
 801 00ac 8022     		movs	r2, #128
 802 00ae C260     		str	r2, [r0, #12]
 384:./Src/stm32f1xx_hal_msp.c ****     hdma_usart3_tx.Init.PeriphDataAlignment = DMA_PDATAALIGN_BYTE;
 803              		.loc 1 384 0
 804 00b0 0361     		str	r3, [r0, #16]
 385:./Src/stm32f1xx_hal_msp.c ****     hdma_usart3_tx.Init.MemDataAlignment = DMA_MDATAALIGN_BYTE;
 805              		.loc 1 385 0
 806 00b2 4361     		str	r3, [r0, #20]
 386:./Src/stm32f1xx_hal_msp.c ****     hdma_usart3_tx.Init.Mode = DMA_NORMAL;
 807              		.loc 1 386 0
 808 00b4 8361     		str	r3, [r0, #24]
 387:./Src/stm32f1xx_hal_msp.c ****     hdma_usart3_tx.Init.Priority = DMA_PRIORITY_LOW;
 809              		.loc 1 387 0
 810 00b6 C361     		str	r3, [r0, #28]
 388:./Src/stm32f1xx_hal_msp.c ****     if (HAL_DMA_Init(&hdma_usart3_tx) != HAL_OK)
 811              		.loc 1 388 0
 812 00b8 FFF7FEFF 		bl	HAL_DMA_Init
 813              	.LVL56:
 814 00bc 08B1     		cbz	r0, .L42
 389:./Src/stm32f1xx_hal_msp.c ****     {
 390:./Src/stm32f1xx_hal_msp.c ****       Error_Handler();
 815              		.loc 1 390 0
 816 00be FFF7FEFF 		bl	Error_Handler
ARM GAS  /tmp/ccPtQ0BP.s 			page 22


 817              	.LVL57:
 818              	.L42:
 391:./Src/stm32f1xx_hal_msp.c ****     }
 392:./Src/stm32f1xx_hal_msp.c **** 
 393:./Src/stm32f1xx_hal_msp.c ****     __HAL_LINKDMA(huart,hdmatx,hdma_usart3_tx);
 819              		.loc 1 393 0
 820 00c2 074B     		ldr	r3, .L45+16
 821 00c4 2363     		str	r3, [r4, #48]
 822 00c6 5C62     		str	r4, [r3, #36]
 394:./Src/stm32f1xx_hal_msp.c ****   }
 395:./Src/stm32f1xx_hal_msp.c **** 
 396:./Src/stm32f1xx_hal_msp.c **** }
 823              		.loc 1 396 0
 824 00c8 08B0     		add	sp, sp, #32
 825              	.LCFI17:
 826              		.cfi_def_cfa_offset 16
 827              		@ sp needed
 828 00ca 70BD     		pop	{r4, r5, r6, pc}
 829              	.LVL58:
 830              	.L44:
 831              	.LCFI18:
 832              		.cfi_def_cfa_offset 0
 833              		.cfi_restore 4
 834              		.cfi_restore 5
 835              		.cfi_restore 6
 836              		.cfi_restore 14
 837 00cc 7047     		bx	lr
 838              	.L46:
 839 00ce 00BF     		.align	2
 840              	.L45:
 841 00d0 00480040 		.word	1073760256
 842 00d4 000C0140 		.word	1073810432
 843 00d8 00000000 		.word	hdma_usart3_rx
 844 00dc 30000240 		.word	1073872944
 845 00e0 00000000 		.word	hdma_usart3_tx
 846 00e4 1C000240 		.word	1073872924
 847              		.cfi_endproc
 848              	.LFE70:
 850              		.section	.text.HAL_UART_MspDeInit,"ax",%progbits
 851              		.align	2
 852              		.global	HAL_UART_MspDeInit
 853              		.thumb
 854              		.thumb_func
 856              	HAL_UART_MspDeInit:
 857              	.LFB71:
 397:./Src/stm32f1xx_hal_msp.c **** 
 398:./Src/stm32f1xx_hal_msp.c **** void HAL_UART_MspDeInit(UART_HandleTypeDef* huart)
 399:./Src/stm32f1xx_hal_msp.c **** {
 858              		.loc 1 399 0
 859              		.cfi_startproc
 860              		@ args = 0, pretend = 0, frame = 0
 861              		@ frame_needed = 0, uses_anonymous_args = 0
 862              	.LVL59:
 400:./Src/stm32f1xx_hal_msp.c **** 
 401:./Src/stm32f1xx_hal_msp.c ****   if(huart->Instance==USART3)
 863              		.loc 1 401 0
 864 0000 0268     		ldr	r2, [r0]
ARM GAS  /tmp/ccPtQ0BP.s 			page 23


 865 0002 0B4B     		ldr	r3, .L51
 866 0004 9A42     		cmp	r2, r3
 867 0006 12D1     		bne	.L50
 399:./Src/stm32f1xx_hal_msp.c **** 
 868              		.loc 1 399 0
 869 0008 10B5     		push	{r4, lr}
 870              	.LCFI19:
 871              		.cfi_def_cfa_offset 8
 872              		.cfi_offset 4, -8
 873              		.cfi_offset 14, -4
 874 000a 0446     		mov	r4, r0
 402:./Src/stm32f1xx_hal_msp.c ****   {
 403:./Src/stm32f1xx_hal_msp.c ****   /* USER CODE BEGIN USART2_MspDeInit 0 */
 404:./Src/stm32f1xx_hal_msp.c **** 
 405:./Src/stm32f1xx_hal_msp.c ****   /* USER CODE END USART2_MspDeInit 0 */
 406:./Src/stm32f1xx_hal_msp.c ****     /* Peripheral clock disable */
 407:./Src/stm32f1xx_hal_msp.c **** 
 408:./Src/stm32f1xx_hal_msp.c ****     __HAL_RCC_USART3_CLK_DISABLE();
 875              		.loc 1 408 0
 876 000c 094A     		ldr	r2, .L51+4
 877 000e D369     		ldr	r3, [r2, #28]
 878 0010 23F48023 		bic	r3, r3, #262144
 879 0014 D361     		str	r3, [r2, #28]
 409:./Src/stm32f1xx_hal_msp.c **** 
 410:./Src/stm32f1xx_hal_msp.c ****     /**USART2 GPIO Configuration
 411:./Src/stm32f1xx_hal_msp.c ****     PA2     ------> USART2_TX
 412:./Src/stm32f1xx_hal_msp.c ****     PA3     ------> USART2_RX
 413:./Src/stm32f1xx_hal_msp.c ****     */
 414:./Src/stm32f1xx_hal_msp.c ****     HAL_GPIO_DeInit(GPIOB, GPIO_PIN_10|GPIO_PIN_11);
 880              		.loc 1 414 0
 881 0016 4FF44061 		mov	r1, #3072
 882 001a 0748     		ldr	r0, .L51+8
 883              	.LVL60:
 884 001c FFF7FEFF 		bl	HAL_GPIO_DeInit
 885              	.LVL61:
 415:./Src/stm32f1xx_hal_msp.c **** 
 416:./Src/stm32f1xx_hal_msp.c ****     /* Peripheral DMA DeInit*/
 417:./Src/stm32f1xx_hal_msp.c ****     HAL_DMA_DeInit(huart->hdmarx);
 886              		.loc 1 417 0
 887 0020 606B     		ldr	r0, [r4, #52]
 888 0022 FFF7FEFF 		bl	HAL_DMA_DeInit
 889              	.LVL62:
 418:./Src/stm32f1xx_hal_msp.c ****     HAL_DMA_DeInit(huart->hdmatx);
 890              		.loc 1 418 0
 891 0026 206B     		ldr	r0, [r4, #48]
 892 0028 FFF7FEFF 		bl	HAL_DMA_DeInit
 893              	.LVL63:
 894 002c 10BD     		pop	{r4, pc}
 895              	.LVL64:
 896              	.L50:
 897              	.LCFI20:
 898              		.cfi_def_cfa_offset 0
 899              		.cfi_restore 4
 900              		.cfi_restore 14
 901 002e 7047     		bx	lr
 902              	.L52:
 903              		.align	2
ARM GAS  /tmp/ccPtQ0BP.s 			page 24


 904              	.L51:
 905 0030 00480040 		.word	1073760256
 906 0034 00100240 		.word	1073876992
 907 0038 000C0140 		.word	1073810432
 908              		.cfi_endproc
 909              	.LFE71:
 911              		.text
 912              	.Letext0:
 913              		.file 2 "/home/niklas/gcc-arm-none-eabi-5_4-2016q3/arm-none-eabi/include/machine/_default_types.h"
 914              		.file 3 "/home/niklas/gcc-arm-none-eabi-5_4-2016q3/arm-none-eabi/include/sys/_stdint.h"
 915              		.file 4 "./Drivers/CMSIS/Device/ST/STM32F1xx/Include/stm32f103xe.h"
 916              		.file 5 "./Drivers/STM32F1xx_HAL_Driver/Inc/stm32f1xx_hal_def.h"
 917              		.file 6 "./Drivers/STM32F1xx_HAL_Driver/Inc/stm32f1xx_hal_gpio.h"
 918              		.file 7 "./Drivers/STM32F1xx_HAL_Driver/Inc/stm32f1xx_hal_dma.h"
 919              		.file 8 "./Drivers/STM32F1xx_HAL_Driver/Inc/stm32f1xx_hal_adc.h"
 920              		.file 9 "./Drivers/STM32F1xx_HAL_Driver/Inc/stm32f1xx_hal_i2c.h"
 921              		.file 10 "./Drivers/STM32F1xx_HAL_Driver/Inc/stm32f1xx_hal_tim.h"
 922              		.file 11 "./Drivers/STM32F1xx_HAL_Driver/Inc/stm32f1xx_hal_uart.h"
 923              		.file 12 "./Drivers/CMSIS/Include/core_cm3.h"
 924              		.file 13 "./Drivers/STM32F1xx_HAL_Driver/Inc/stm32f1xx_hal_cortex.h"
ARM GAS  /tmp/ccPtQ0BP.s 			page 25


DEFINED SYMBOLS
                            *ABS*:00000000 stm32f1xx_hal_msp.c
     /tmp/ccPtQ0BP.s:20     .text.HAL_MspInit:00000000 $t
     /tmp/ccPtQ0BP.s:25     .text.HAL_MspInit:00000000 HAL_MspInit
     /tmp/ccPtQ0BP.s:105    .text.HAL_MspInit:00000078 $d
     /tmp/ccPtQ0BP.s:110    .text.HAL_ADC_MspInit:00000000 $t
     /tmp/ccPtQ0BP.s:115    .text.HAL_ADC_MspInit:00000000 HAL_ADC_MspInit
     /tmp/ccPtQ0BP.s:281    .text.HAL_ADC_MspInit:000000d4 $d
     /tmp/ccPtQ0BP.s:294    .text.HAL_ADC_MspDeInit:00000000 $t
     /tmp/ccPtQ0BP.s:299    .text.HAL_ADC_MspDeInit:00000000 HAL_ADC_MspDeInit
     /tmp/ccPtQ0BP.s:344    .text.HAL_ADC_MspDeInit:00000028 $d
     /tmp/ccPtQ0BP.s:351    .text.HAL_I2C_MspInit:00000000 $t
     /tmp/ccPtQ0BP.s:356    .text.HAL_I2C_MspInit:00000000 HAL_I2C_MspInit
     /tmp/ccPtQ0BP.s:532    .text.HAL_I2C_MspInit:000000e0 $d
     /tmp/ccPtQ0BP.s:543    .text.HAL_I2C_MspDeInit:00000000 $t
     /tmp/ccPtQ0BP.s:548    .text.HAL_I2C_MspDeInit:00000000 HAL_I2C_MspDeInit
     /tmp/ccPtQ0BP.s:601    .text.HAL_I2C_MspDeInit:00000038 $d
     /tmp/ccPtQ0BP.s:608    .text.HAL_TIM_PWM_MspDeInit:00000000 $t
     /tmp/ccPtQ0BP.s:613    .text.HAL_TIM_PWM_MspDeInit:00000000 HAL_TIM_PWM_MspDeInit
     /tmp/ccPtQ0BP.s:662    .text.HAL_TIM_PWM_MspDeInit:00000038 $d
     /tmp/ccPtQ0BP.s:668    .text.HAL_UART_MspInit:00000000 $t
     /tmp/ccPtQ0BP.s:673    .text.HAL_UART_MspInit:00000000 HAL_UART_MspInit
     /tmp/ccPtQ0BP.s:841    .text.HAL_UART_MspInit:000000d0 $d
     /tmp/ccPtQ0BP.s:851    .text.HAL_UART_MspDeInit:00000000 $t
     /tmp/ccPtQ0BP.s:856    .text.HAL_UART_MspDeInit:00000000 HAL_UART_MspDeInit
     /tmp/ccPtQ0BP.s:905    .text.HAL_UART_MspDeInit:00000030 $d
                     .debug_frame:00000010 $d

UNDEFINED SYMBOLS
HAL_NVIC_SetPriorityGrouping
HAL_NVIC_SetPriority
HAL_GPIO_Init
HAL_DMA_Init
Error_Handler
hdma_adc1
hdma_adc3
HAL_GPIO_DeInit
HAL_DMA_DeInit
HAL_NVIC_EnableIRQ
hdma_i2c2_rx
hdma_i2c2_tx
HAL_NVIC_DisableIRQ
hdma_usart3_rx
hdma_usart3_tx
