ARM GAS  /tmp/ccRZEVji.s 			page 1


   1              		.syntax unified
   2              		.cpu cortex-m3
   3              		.fpu softvfp
   4              		.eabi_attribute 20, 1
   5              		.eabi_attribute 21, 1
   6              		.eabi_attribute 23, 3
   7              		.eabi_attribute 24, 1
   8              		.eabi_attribute 25, 1
   9              		.eabi_attribute 26, 1
  10              		.eabi_attribute 30, 1
  11              		.eabi_attribute 34, 1
  12              		.eabi_attribute 18, 4
  13              		.thumb
  14              		.syntax unified
  15              		.file	"stm32f1xx_hal_msp.c"
  16              		.text
  17              	.Ltext0:
  18              		.cfi_sections	.debug_frame
  19              		.section	.text.HAL_MspInit,"ax",%progbits
  20              		.align	2
  21              		.global	HAL_MspInit
  22              		.thumb
  23              		.thumb_func
  25              	HAL_MspInit:
  26              	.LFB64:
  27              		.file 1 "./Src/stm32f1xx_hal_msp.c"
   1:./Src/stm32f1xx_hal_msp.c **** /**
   2:./Src/stm32f1xx_hal_msp.c ****   ******************************************************************************
   3:./Src/stm32f1xx_hal_msp.c ****   * File Name          : stm32f1xx_hal_msp.c
   4:./Src/stm32f1xx_hal_msp.c ****   * Description        : This file provides code for the MSP Initialization
   5:./Src/stm32f1xx_hal_msp.c ****   *                      and de-Initialization codes.
   6:./Src/stm32f1xx_hal_msp.c ****   ******************************************************************************
   7:./Src/stm32f1xx_hal_msp.c ****   *
   8:./Src/stm32f1xx_hal_msp.c ****   * COPYRIGHT(c) 2017 STMicroelectronics
   9:./Src/stm32f1xx_hal_msp.c ****   *
  10:./Src/stm32f1xx_hal_msp.c ****   * Redistribution and use in source and binary forms, with or without modification,
  11:./Src/stm32f1xx_hal_msp.c ****   * are permitted provided that the following conditions are met:
  12:./Src/stm32f1xx_hal_msp.c ****   *   1. Redistributions of source code must retain the above copyright notice,
  13:./Src/stm32f1xx_hal_msp.c ****   *      this list of conditions and the following disclaimer.
  14:./Src/stm32f1xx_hal_msp.c ****   *   2. Redistributions in binary form must reproduce the above copyright notice,
  15:./Src/stm32f1xx_hal_msp.c ****   *      this list of conditions and the following disclaimer in the documentation
  16:./Src/stm32f1xx_hal_msp.c ****   *      and/or other materials provided with the distribution.
  17:./Src/stm32f1xx_hal_msp.c ****   *   3. Neither the name of STMicroelectronics nor the names of its contributors
  18:./Src/stm32f1xx_hal_msp.c ****   *      may be used to endorse or promote products derived from this software
  19:./Src/stm32f1xx_hal_msp.c ****   *      without specific prior written permission.
  20:./Src/stm32f1xx_hal_msp.c ****   *
  21:./Src/stm32f1xx_hal_msp.c ****   * THIS SOFTWARE IS PROVIDED BY THE COPYRIGHT HOLDERS AND CONTRIBUTORS "AS IS"
  22:./Src/stm32f1xx_hal_msp.c ****   * AND ANY EXPRESS OR IMPLIED WARRANTIES, INCLUDING, BUT NOT LIMITED TO, THE
  23:./Src/stm32f1xx_hal_msp.c ****   * IMPLIED WARRANTIES OF MERCHANTABILITY AND FITNESS FOR A PARTICULAR PURPOSE ARE
  24:./Src/stm32f1xx_hal_msp.c ****   * DISCLAIMED. IN NO EVENT SHALL THE COPYRIGHT HOLDER OR CONTRIBUTORS BE LIABLE
  25:./Src/stm32f1xx_hal_msp.c ****   * FOR ANY DIRECT, INDIRECT, INCIDENTAL, SPECIAL, EXEMPLARY, OR CONSEQUENTIAL
  26:./Src/stm32f1xx_hal_msp.c ****   * DAMAGES (INCLUDING, BUT NOT LIMITED TO, PROCUREMENT OF SUBSTITUTE GOODS OR
  27:./Src/stm32f1xx_hal_msp.c ****   * SERVICES; LOSS OF USE, DATA, OR PROFITS; OR BUSINESS INTERRUPTION) HOWEVER
  28:./Src/stm32f1xx_hal_msp.c ****   * CAUSED AND ON ANY THEORY OF LIABILITY, WHETHER IN CONTRACT, STRICT LIABILITY,
  29:./Src/stm32f1xx_hal_msp.c ****   * OR TORT (INCLUDING NEGLIGENCE OR OTHERWISE) ARISING IN ANY WAY OUT OF THE USE
  30:./Src/stm32f1xx_hal_msp.c ****   * OF THIS SOFTWARE, EVEN IF ADVISED OF THE POSSIBILITY OF SUCH DAMAGE.
  31:./Src/stm32f1xx_hal_msp.c ****   *
ARM GAS  /tmp/ccRZEVji.s 			page 2


  32:./Src/stm32f1xx_hal_msp.c ****   ******************************************************************************
  33:./Src/stm32f1xx_hal_msp.c ****   */
  34:./Src/stm32f1xx_hal_msp.c **** /* Includes ------------------------------------------------------------------*/
  35:./Src/stm32f1xx_hal_msp.c **** #include "stm32f1xx_hal.h"
  36:./Src/stm32f1xx_hal_msp.c **** 
  37:./Src/stm32f1xx_hal_msp.c **** extern DMA_HandleTypeDef hdma_adc1;
  38:./Src/stm32f1xx_hal_msp.c **** extern DMA_HandleTypeDef hdma_adc3;
  39:./Src/stm32f1xx_hal_msp.c **** extern DMA_HandleTypeDef hdma_i2c2_rx;
  40:./Src/stm32f1xx_hal_msp.c **** 
  41:./Src/stm32f1xx_hal_msp.c **** extern DMA_HandleTypeDef hdma_i2c2_tx;
  42:./Src/stm32f1xx_hal_msp.c **** 
  43:./Src/stm32f1xx_hal_msp.c **** extern DMA_HandleTypeDef hdma_usart2_rx;
  44:./Src/stm32f1xx_hal_msp.c **** 
  45:./Src/stm32f1xx_hal_msp.c **** extern DMA_HandleTypeDef hdma_usart2_tx;
  46:./Src/stm32f1xx_hal_msp.c **** 
  47:./Src/stm32f1xx_hal_msp.c **** extern void Error_Handler(void);
  48:./Src/stm32f1xx_hal_msp.c **** /* USER CODE BEGIN 0 */
  49:./Src/stm32f1xx_hal_msp.c **** 
  50:./Src/stm32f1xx_hal_msp.c **** /* USER CODE END 0 */
  51:./Src/stm32f1xx_hal_msp.c **** /**
  52:./Src/stm32f1xx_hal_msp.c ****   * Initializes the Global MSP.
  53:./Src/stm32f1xx_hal_msp.c ****   */
  54:./Src/stm32f1xx_hal_msp.c **** void HAL_MspInit(void)
  55:./Src/stm32f1xx_hal_msp.c **** {
  28              		.loc 1 55 0
  29              		.cfi_startproc
  30              		@ args = 0, pretend = 0, frame = 8
  31              		@ frame_needed = 0, uses_anonymous_args = 0
  32 0000 00B5     		push	{lr}
  33              	.LCFI0:
  34              		.cfi_def_cfa_offset 4
  35              		.cfi_offset 14, -4
  36 0002 83B0     		sub	sp, sp, #12
  37              	.LCFI1:
  38              		.cfi_def_cfa_offset 16
  39              	.LBB2:
  56:./Src/stm32f1xx_hal_msp.c ****   /* USER CODE BEGIN MspInit 0 */
  57:./Src/stm32f1xx_hal_msp.c **** 
  58:./Src/stm32f1xx_hal_msp.c ****   /* USER CODE END MspInit 0 */
  59:./Src/stm32f1xx_hal_msp.c **** 
  60:./Src/stm32f1xx_hal_msp.c ****   __HAL_RCC_AFIO_CLK_ENABLE();
  40              		.loc 1 60 0
  41 0004 1C4B     		ldr	r3, .L3
  42 0006 9A69     		ldr	r2, [r3, #24]
  43 0008 42F00102 		orr	r2, r2, #1
  44 000c 9A61     		str	r2, [r3, #24]
  45 000e 9B69     		ldr	r3, [r3, #24]
  46 0010 03F00103 		and	r3, r3, #1
  47 0014 0193     		str	r3, [sp, #4]
  48 0016 019B     		ldr	r3, [sp, #4]
  49              	.LBE2:
  61:./Src/stm32f1xx_hal_msp.c **** 
  62:./Src/stm32f1xx_hal_msp.c ****   HAL_NVIC_SetPriorityGrouping(NVIC_PRIORITYGROUP_4);
  50              		.loc 1 62 0
  51 0018 0320     		movs	r0, #3
  52 001a FFF7FEFF 		bl	HAL_NVIC_SetPriorityGrouping
  53              	.LVL0:
ARM GAS  /tmp/ccRZEVji.s 			page 3


  63:./Src/stm32f1xx_hal_msp.c **** 
  64:./Src/stm32f1xx_hal_msp.c ****   /* System interrupt init*/
  65:./Src/stm32f1xx_hal_msp.c ****   /* MemoryManagement_IRQn interrupt configuration */
  66:./Src/stm32f1xx_hal_msp.c ****   HAL_NVIC_SetPriority(MemoryManagement_IRQn, 0, 0);
  54              		.loc 1 66 0
  55 001e 0022     		movs	r2, #0
  56 0020 1146     		mov	r1, r2
  57 0022 6FF00B00 		mvn	r0, #11
  58 0026 FFF7FEFF 		bl	HAL_NVIC_SetPriority
  59              	.LVL1:
  67:./Src/stm32f1xx_hal_msp.c ****   /* BusFault_IRQn interrupt configuration */
  68:./Src/stm32f1xx_hal_msp.c ****   HAL_NVIC_SetPriority(BusFault_IRQn, 0, 0);
  60              		.loc 1 68 0
  61 002a 0022     		movs	r2, #0
  62 002c 1146     		mov	r1, r2
  63 002e 6FF00A00 		mvn	r0, #10
  64 0032 FFF7FEFF 		bl	HAL_NVIC_SetPriority
  65              	.LVL2:
  69:./Src/stm32f1xx_hal_msp.c ****   /* UsageFault_IRQn interrupt configuration */
  70:./Src/stm32f1xx_hal_msp.c ****   HAL_NVIC_SetPriority(UsageFault_IRQn, 0, 0);
  66              		.loc 1 70 0
  67 0036 0022     		movs	r2, #0
  68 0038 1146     		mov	r1, r2
  69 003a 6FF00900 		mvn	r0, #9
  70 003e FFF7FEFF 		bl	HAL_NVIC_SetPriority
  71              	.LVL3:
  71:./Src/stm32f1xx_hal_msp.c ****   /* SVCall_IRQn interrupt configuration */
  72:./Src/stm32f1xx_hal_msp.c ****   HAL_NVIC_SetPriority(SVCall_IRQn, 0, 0);
  72              		.loc 1 72 0
  73 0042 0022     		movs	r2, #0
  74 0044 1146     		mov	r1, r2
  75 0046 6FF00400 		mvn	r0, #4
  76 004a FFF7FEFF 		bl	HAL_NVIC_SetPriority
  77              	.LVL4:
  73:./Src/stm32f1xx_hal_msp.c ****   /* DebugMonitor_IRQn interrupt configuration */
  74:./Src/stm32f1xx_hal_msp.c ****   HAL_NVIC_SetPriority(DebugMonitor_IRQn, 0, 0);
  78              		.loc 1 74 0
  79 004e 0022     		movs	r2, #0
  80 0050 1146     		mov	r1, r2
  81 0052 6FF00300 		mvn	r0, #3
  82 0056 FFF7FEFF 		bl	HAL_NVIC_SetPriority
  83              	.LVL5:
  75:./Src/stm32f1xx_hal_msp.c ****   /* PendSV_IRQn interrupt configuration */
  76:./Src/stm32f1xx_hal_msp.c ****   HAL_NVIC_SetPriority(PendSV_IRQn, 0, 0);
  84              		.loc 1 76 0
  85 005a 0022     		movs	r2, #0
  86 005c 1146     		mov	r1, r2
  87 005e 6FF00100 		mvn	r0, #1
  88 0062 FFF7FEFF 		bl	HAL_NVIC_SetPriority
  89              	.LVL6:
  77:./Src/stm32f1xx_hal_msp.c ****   /* SysTick_IRQn interrupt configuration */
  78:./Src/stm32f1xx_hal_msp.c ****   HAL_NVIC_SetPriority(SysTick_IRQn, 0, 0);
  90              		.loc 1 78 0
  91 0066 0022     		movs	r2, #0
  92 0068 1146     		mov	r1, r2
  93 006a 4FF0FF30 		mov	r0, #-1
  94 006e FFF7FEFF 		bl	HAL_NVIC_SetPriority
ARM GAS  /tmp/ccRZEVji.s 			page 4


  95              	.LVL7:
  79:./Src/stm32f1xx_hal_msp.c **** 
  80:./Src/stm32f1xx_hal_msp.c ****     /**DISABLE: JTAG-DP Disabled and SW-DP Disabled
  81:./Src/stm32f1xx_hal_msp.c ****     */
  82:./Src/stm32f1xx_hal_msp.c ****  // __HAL_AFIO_REMAP_SWJ_DISABLE();
  83:./Src/stm32f1xx_hal_msp.c **** 
  84:./Src/stm32f1xx_hal_msp.c ****   /* USER CODE BEGIN MspInit 1 */
  85:./Src/stm32f1xx_hal_msp.c **** 
  86:./Src/stm32f1xx_hal_msp.c ****   /* USER CODE END MspInit 1 */
  87:./Src/stm32f1xx_hal_msp.c **** }
  96              		.loc 1 87 0
  97 0072 03B0     		add	sp, sp, #12
  98              	.LCFI2:
  99              		.cfi_def_cfa_offset 4
 100              		@ sp needed
 101 0074 5DF804FB 		ldr	pc, [sp], #4
 102              	.L4:
 103              		.align	2
 104              	.L3:
 105 0078 00100240 		.word	1073876992
 106              		.cfi_endproc
 107              	.LFE64:
 109              		.section	.text.HAL_ADC_MspInit,"ax",%progbits
 110              		.align	2
 111              		.global	HAL_ADC_MspInit
 112              		.thumb
 113              		.thumb_func
 115              	HAL_ADC_MspInit:
 116              	.LFB65:
  88:./Src/stm32f1xx_hal_msp.c **** 
  89:./Src/stm32f1xx_hal_msp.c **** void HAL_ADC_MspInit(ADC_HandleTypeDef* hadc)
  90:./Src/stm32f1xx_hal_msp.c **** {
 117              		.loc 1 90 0
 118              		.cfi_startproc
 119              		@ args = 0, pretend = 0, frame = 24
 120              		@ frame_needed = 0, uses_anonymous_args = 0
 121              	.LVL8:
 122 0000 10B5     		push	{r4, lr}
 123              	.LCFI3:
 124              		.cfi_def_cfa_offset 8
 125              		.cfi_offset 4, -8
 126              		.cfi_offset 14, -4
 127 0002 86B0     		sub	sp, sp, #24
 128              	.LCFI4:
 129              		.cfi_def_cfa_offset 32
 130 0004 0446     		mov	r4, r0
  91:./Src/stm32f1xx_hal_msp.c **** 
  92:./Src/stm32f1xx_hal_msp.c ****   GPIO_InitTypeDef GPIO_InitStruct;
  93:./Src/stm32f1xx_hal_msp.c ****   if(hadc->Instance==ADC1)
 131              		.loc 1 93 0
 132 0006 0368     		ldr	r3, [r0]
 133 0008 2F4A     		ldr	r2, .L11
 134 000a 9342     		cmp	r3, r2
 135 000c 2BD1     		bne	.L6
 136              	.LBB3:
  94:./Src/stm32f1xx_hal_msp.c ****   {
  95:./Src/stm32f1xx_hal_msp.c ****   /* USER CODE BEGIN ADC1_MspInit 0 */
ARM GAS  /tmp/ccRZEVji.s 			page 5


  96:./Src/stm32f1xx_hal_msp.c **** 
  97:./Src/stm32f1xx_hal_msp.c ****   /* USER CODE END ADC1_MspInit 0 */
  98:./Src/stm32f1xx_hal_msp.c ****     /* Peripheral clock enable */
  99:./Src/stm32f1xx_hal_msp.c ****     __HAL_RCC_ADC1_CLK_ENABLE();
 137              		.loc 1 99 0
 138 000e 2F4B     		ldr	r3, .L11+4
 139 0010 9A69     		ldr	r2, [r3, #24]
 140 0012 42F40072 		orr	r2, r2, #512
 141 0016 9A61     		str	r2, [r3, #24]
 142 0018 9B69     		ldr	r3, [r3, #24]
 143 001a 03F40073 		and	r3, r3, #512
 144 001e 0093     		str	r3, [sp]
 145 0020 009B     		ldr	r3, [sp]
 146              	.LBE3:
 100:./Src/stm32f1xx_hal_msp.c **** 
 101:./Src/stm32f1xx_hal_msp.c ****     /**ADC1 GPIO Configuration
 102:./Src/stm32f1xx_hal_msp.c ****     PC0     ------> ADC1_IN10
 103:./Src/stm32f1xx_hal_msp.c ****     PC1     ------> ADC1_IN11
 104:./Src/stm32f1xx_hal_msp.c ****     PC2     ------> ADC1_IN12
 105:./Src/stm32f1xx_hal_msp.c ****     */
 106:./Src/stm32f1xx_hal_msp.c ****     GPIO_InitStruct.Pin = GPIO_PIN_1|GPIO_PIN_2;  //GPIO_PIN_0
 147              		.loc 1 106 0
 148 0022 0623     		movs	r3, #6
 149 0024 0293     		str	r3, [sp, #8]
 107:./Src/stm32f1xx_hal_msp.c ****     GPIO_InitStruct.Mode = GPIO_MODE_ANALOG;
 150              		.loc 1 107 0
 151 0026 0323     		movs	r3, #3
 152 0028 0393     		str	r3, [sp, #12]
 108:./Src/stm32f1xx_hal_msp.c ****     HAL_GPIO_Init(GPIOC, &GPIO_InitStruct);
 153              		.loc 1 108 0
 154 002a 02A9     		add	r1, sp, #8
 155 002c 2848     		ldr	r0, .L11+8
 156              	.LVL9:
 157 002e FFF7FEFF 		bl	HAL_GPIO_Init
 158              	.LVL10:
 109:./Src/stm32f1xx_hal_msp.c **** 
 110:./Src/stm32f1xx_hal_msp.c ****     /* Peripheral DMA init*/
 111:./Src/stm32f1xx_hal_msp.c **** 
 112:./Src/stm32f1xx_hal_msp.c ****     hdma_adc1.Instance = DMA1_Channel1;
 159              		.loc 1 112 0
 160 0032 2848     		ldr	r0, .L11+12
 161 0034 284B     		ldr	r3, .L11+16
 162 0036 0360     		str	r3, [r0]
 113:./Src/stm32f1xx_hal_msp.c ****     hdma_adc1.Init.Direction = DMA_PERIPH_TO_MEMORY;
 163              		.loc 1 113 0
 164 0038 0023     		movs	r3, #0
 165 003a 4360     		str	r3, [r0, #4]
 114:./Src/stm32f1xx_hal_msp.c ****     hdma_adc1.Init.PeriphInc = DMA_PINC_DISABLE;
 166              		.loc 1 114 0
 167 003c 8360     		str	r3, [r0, #8]
 115:./Src/stm32f1xx_hal_msp.c ****     hdma_adc1.Init.MemInc = DMA_MINC_ENABLE;
 168              		.loc 1 115 0
 169 003e 8022     		movs	r2, #128
 170 0040 C260     		str	r2, [r0, #12]
 116:./Src/stm32f1xx_hal_msp.c ****     hdma_adc1.Init.PeriphDataAlignment = DMA_PDATAALIGN_HALFWORD;
 171              		.loc 1 116 0
 172 0042 4FF48072 		mov	r2, #256
ARM GAS  /tmp/ccRZEVji.s 			page 6


 173 0046 0261     		str	r2, [r0, #16]
 117:./Src/stm32f1xx_hal_msp.c ****     hdma_adc1.Init.MemDataAlignment = DMA_MDATAALIGN_HALFWORD;
 174              		.loc 1 117 0
 175 0048 4FF48062 		mov	r2, #1024
 176 004c 4261     		str	r2, [r0, #20]
 118:./Src/stm32f1xx_hal_msp.c ****     hdma_adc1.Init.Mode = DMA_CIRCULAR;//DMA_NORMAL;
 177              		.loc 1 118 0
 178 004e 2022     		movs	r2, #32
 179 0050 8261     		str	r2, [r0, #24]
 119:./Src/stm32f1xx_hal_msp.c ****     hdma_adc1.Init.Priority = DMA_PRIORITY_LOW;
 180              		.loc 1 119 0
 181 0052 C361     		str	r3, [r0, #28]
 120:./Src/stm32f1xx_hal_msp.c ****     if (HAL_DMA_Init(&hdma_adc1) != HAL_OK)
 182              		.loc 1 120 0
 183 0054 FFF7FEFF 		bl	HAL_DMA_Init
 184              	.LVL11:
 185 0058 08B1     		cbz	r0, .L7
 121:./Src/stm32f1xx_hal_msp.c ****     {
 122:./Src/stm32f1xx_hal_msp.c ****       Error_Handler();
 186              		.loc 1 122 0
 187 005a FFF7FEFF 		bl	Error_Handler
 188              	.LVL12:
 189              	.L7:
 123:./Src/stm32f1xx_hal_msp.c ****     }
 124:./Src/stm32f1xx_hal_msp.c **** 
 125:./Src/stm32f1xx_hal_msp.c ****     __HAL_LINKDMA(hadc,DMA_Handle,hdma_adc1);
 190              		.loc 1 125 0
 191 005e 1D4B     		ldr	r3, .L11+12
 192 0060 2362     		str	r3, [r4, #32]
 193 0062 5C62     		str	r4, [r3, #36]
 194 0064 2DE0     		b	.L5
 195              	.LVL13:
 196              	.L6:
 126:./Src/stm32f1xx_hal_msp.c **** 
 127:./Src/stm32f1xx_hal_msp.c ****   /* USER CODE BEGIN ADC1_MspInit 1 */
 128:./Src/stm32f1xx_hal_msp.c **** 
 129:./Src/stm32f1xx_hal_msp.c ****   /* USER CODE END ADC1_MspInit 1 */
 130:./Src/stm32f1xx_hal_msp.c ****   }
 131:./Src/stm32f1xx_hal_msp.c ****   else if(hadc->Instance==ADC3)
 197              		.loc 1 131 0
 198 0066 1D4A     		ldr	r2, .L11+20
 199 0068 9342     		cmp	r3, r2
 200 006a 2AD1     		bne	.L5
 201              	.LBB4:
 132:./Src/stm32f1xx_hal_msp.c ****   {
 133:./Src/stm32f1xx_hal_msp.c ****   /* USER CODE BEGIN ADC3_MspInit 0 */
 134:./Src/stm32f1xx_hal_msp.c **** 
 135:./Src/stm32f1xx_hal_msp.c ****   /* USER CODE END ADC3_MspInit 0 */
 136:./Src/stm32f1xx_hal_msp.c ****     /* Peripheral clock enable */
 137:./Src/stm32f1xx_hal_msp.c ****     __HAL_RCC_ADC3_CLK_ENABLE();
 202              		.loc 1 137 0
 203 006c 174B     		ldr	r3, .L11+4
 204 006e 9A69     		ldr	r2, [r3, #24]
 205 0070 42F40042 		orr	r2, r2, #32768
 206 0074 9A61     		str	r2, [r3, #24]
 207 0076 9B69     		ldr	r3, [r3, #24]
 208 0078 03F40043 		and	r3, r3, #32768
ARM GAS  /tmp/ccRZEVji.s 			page 7


 209 007c 0193     		str	r3, [sp, #4]
 210 007e 019B     		ldr	r3, [sp, #4]
 211              	.LBE4:
 138:./Src/stm32f1xx_hal_msp.c **** 
 139:./Src/stm32f1xx_hal_msp.c ****     /**ADC3 GPIO Configuration
 140:./Src/stm32f1xx_hal_msp.c ****     PC0     ------> ADC3_IN10
 141:./Src/stm32f1xx_hal_msp.c ****     */
 142:./Src/stm32f1xx_hal_msp.c ****     GPIO_InitStruct.Pin = GPIO_PIN_0;
 212              		.loc 1 142 0
 213 0080 0123     		movs	r3, #1
 214 0082 0293     		str	r3, [sp, #8]
 143:./Src/stm32f1xx_hal_msp.c ****     GPIO_InitStruct.Mode = GPIO_MODE_ANALOG;
 215              		.loc 1 143 0
 216 0084 0323     		movs	r3, #3
 217 0086 0393     		str	r3, [sp, #12]
 144:./Src/stm32f1xx_hal_msp.c ****     HAL_GPIO_Init(GPIOC, &GPIO_InitStruct);
 218              		.loc 1 144 0
 219 0088 02A9     		add	r1, sp, #8
 220 008a 1148     		ldr	r0, .L11+8
 221              	.LVL14:
 222 008c FFF7FEFF 		bl	HAL_GPIO_Init
 223              	.LVL15:
 145:./Src/stm32f1xx_hal_msp.c **** 
 146:./Src/stm32f1xx_hal_msp.c ****     /* Peripheral DMA init*/
 147:./Src/stm32f1xx_hal_msp.c **** 
 148:./Src/stm32f1xx_hal_msp.c ****     hdma_adc3.Instance = DMA2_Channel5;
 224              		.loc 1 148 0
 225 0090 1348     		ldr	r0, .L11+24
 226 0092 144B     		ldr	r3, .L11+28
 227 0094 0360     		str	r3, [r0]
 149:./Src/stm32f1xx_hal_msp.c ****     hdma_adc3.Init.Direction = DMA_PERIPH_TO_MEMORY;
 228              		.loc 1 149 0
 229 0096 0023     		movs	r3, #0
 230 0098 4360     		str	r3, [r0, #4]
 150:./Src/stm32f1xx_hal_msp.c ****     hdma_adc3.Init.PeriphInc = DMA_PINC_DISABLE;
 231              		.loc 1 150 0
 232 009a 8360     		str	r3, [r0, #8]
 151:./Src/stm32f1xx_hal_msp.c ****     hdma_adc3.Init.MemInc = DMA_MINC_ENABLE;
 233              		.loc 1 151 0
 234 009c 8022     		movs	r2, #128
 235 009e C260     		str	r2, [r0, #12]
 152:./Src/stm32f1xx_hal_msp.c ****     hdma_adc3.Init.PeriphDataAlignment = DMA_PDATAALIGN_HALFWORD;
 236              		.loc 1 152 0
 237 00a0 4FF48072 		mov	r2, #256
 238 00a4 0261     		str	r2, [r0, #16]
 153:./Src/stm32f1xx_hal_msp.c ****     hdma_adc3.Init.MemDataAlignment = DMA_MDATAALIGN_HALFWORD;
 239              		.loc 1 153 0
 240 00a6 4FF48062 		mov	r2, #1024
 241 00aa 4261     		str	r2, [r0, #20]
 154:./Src/stm32f1xx_hal_msp.c ****     hdma_adc3.Init.Mode = DMA_CIRCULAR;
 242              		.loc 1 154 0
 243 00ac 2022     		movs	r2, #32
 244 00ae 8261     		str	r2, [r0, #24]
 155:./Src/stm32f1xx_hal_msp.c ****     hdma_adc3.Init.Priority = DMA_PRIORITY_LOW;
 245              		.loc 1 155 0
 246 00b0 C361     		str	r3, [r0, #28]
 156:./Src/stm32f1xx_hal_msp.c ****     if (HAL_DMA_Init(&hdma_adc3) != HAL_OK)
ARM GAS  /tmp/ccRZEVji.s 			page 8


 247              		.loc 1 156 0
 248 00b2 FFF7FEFF 		bl	HAL_DMA_Init
 249              	.LVL16:
 250 00b6 08B1     		cbz	r0, .L9
 157:./Src/stm32f1xx_hal_msp.c ****     {
 158:./Src/stm32f1xx_hal_msp.c ****       Error_Handler();
 251              		.loc 1 158 0
 252 00b8 FFF7FEFF 		bl	Error_Handler
 253              	.LVL17:
 254              	.L9:
 159:./Src/stm32f1xx_hal_msp.c ****     }
 160:./Src/stm32f1xx_hal_msp.c **** 
 161:./Src/stm32f1xx_hal_msp.c ****     __HAL_LINKDMA(hadc,DMA_Handle,hdma_adc3);
 255              		.loc 1 161 0
 256 00bc 084B     		ldr	r3, .L11+24
 257 00be 2362     		str	r3, [r4, #32]
 258 00c0 5C62     		str	r4, [r3, #36]
 259              	.L5:
 162:./Src/stm32f1xx_hal_msp.c **** 
 163:./Src/stm32f1xx_hal_msp.c ****   /* USER CODE BEGIN ADC3_MspInit 1 */
 164:./Src/stm32f1xx_hal_msp.c **** 
 165:./Src/stm32f1xx_hal_msp.c ****   /* USER CODE END ADC3_MspInit 1 */
 166:./Src/stm32f1xx_hal_msp.c ****   }
 167:./Src/stm32f1xx_hal_msp.c **** }
 260              		.loc 1 167 0
 261 00c2 06B0     		add	sp, sp, #24
 262              	.LCFI5:
 263              		.cfi_def_cfa_offset 8
 264              		@ sp needed
 265 00c4 10BD     		pop	{r4, pc}
 266              	.LVL18:
 267              	.L12:
 268 00c6 00BF     		.align	2
 269              	.L11:
 270 00c8 00240140 		.word	1073816576
 271 00cc 00100240 		.word	1073876992
 272 00d0 00100140 		.word	1073811456
 273 00d4 00000000 		.word	hdma_adc1
 274 00d8 08000240 		.word	1073872904
 275 00dc 003C0140 		.word	1073822720
 276 00e0 00000000 		.word	hdma_adc3
 277 00e4 58040240 		.word	1073874008
 278              		.cfi_endproc
 279              	.LFE65:
 281              		.section	.text.HAL_ADC_MspDeInit,"ax",%progbits
 282              		.align	2
 283              		.global	HAL_ADC_MspDeInit
 284              		.thumb
 285              		.thumb_func
 287              	HAL_ADC_MspDeInit:
 288              	.LFB66:
 168:./Src/stm32f1xx_hal_msp.c **** 
 169:./Src/stm32f1xx_hal_msp.c **** void HAL_ADC_MspDeInit(ADC_HandleTypeDef* hadc)
 170:./Src/stm32f1xx_hal_msp.c **** {
 289              		.loc 1 170 0
 290              		.cfi_startproc
 291              		@ args = 0, pretend = 0, frame = 0
ARM GAS  /tmp/ccRZEVji.s 			page 9


 292              		@ frame_needed = 0, uses_anonymous_args = 0
 293              	.LVL19:
 171:./Src/stm32f1xx_hal_msp.c **** 
 172:./Src/stm32f1xx_hal_msp.c ****   if(hadc->Instance==ADC1)
 294              		.loc 1 172 0
 295 0000 0268     		ldr	r2, [r0]
 296 0002 094B     		ldr	r3, .L17
 297 0004 9A42     		cmp	r2, r3
 298 0006 0ED1     		bne	.L16
 170:./Src/stm32f1xx_hal_msp.c **** 
 299              		.loc 1 170 0
 300 0008 10B5     		push	{r4, lr}
 301              	.LCFI6:
 302              		.cfi_def_cfa_offset 8
 303              		.cfi_offset 4, -8
 304              		.cfi_offset 14, -4
 305 000a 0446     		mov	r4, r0
 173:./Src/stm32f1xx_hal_msp.c ****   {
 174:./Src/stm32f1xx_hal_msp.c ****   /* USER CODE BEGIN ADC1_MspDeInit 0 */
 175:./Src/stm32f1xx_hal_msp.c **** 
 176:./Src/stm32f1xx_hal_msp.c ****   /* USER CODE END ADC1_MspDeInit 0 */
 177:./Src/stm32f1xx_hal_msp.c ****     /* Peripheral clock disable */
 178:./Src/stm32f1xx_hal_msp.c ****     __HAL_RCC_ADC1_CLK_DISABLE();
 306              		.loc 1 178 0
 307 000c 074A     		ldr	r2, .L17+4
 308 000e 9369     		ldr	r3, [r2, #24]
 309 0010 23F40073 		bic	r3, r3, #512
 310 0014 9361     		str	r3, [r2, #24]
 179:./Src/stm32f1xx_hal_msp.c **** 
 180:./Src/stm32f1xx_hal_msp.c ****     /**ADC1 GPIO Configuration
 181:./Src/stm32f1xx_hal_msp.c ****     PC0     ------> ADC1_IN10
 182:./Src/stm32f1xx_hal_msp.c ****     PC1     ------> ADC1_IN11
 183:./Src/stm32f1xx_hal_msp.c ****     PC2     ------> ADC1_IN12
 184:./Src/stm32f1xx_hal_msp.c ****     */
 185:./Src/stm32f1xx_hal_msp.c ****     HAL_GPIO_DeInit(GPIOC, GPIO_PIN_0|GPIO_PIN_1|GPIO_PIN_2);
 311              		.loc 1 185 0
 312 0016 0721     		movs	r1, #7
 313 0018 0548     		ldr	r0, .L17+8
 314              	.LVL20:
 315 001a FFF7FEFF 		bl	HAL_GPIO_DeInit
 316              	.LVL21:
 186:./Src/stm32f1xx_hal_msp.c **** 
 187:./Src/stm32f1xx_hal_msp.c ****     /* Peripheral DMA DeInit*/
 188:./Src/stm32f1xx_hal_msp.c ****     HAL_DMA_DeInit(hadc->DMA_Handle);
 317              		.loc 1 188 0
 318 001e 206A     		ldr	r0, [r4, #32]
 319 0020 FFF7FEFF 		bl	HAL_DMA_DeInit
 320              	.LVL22:
 321 0024 10BD     		pop	{r4, pc}
 322              	.LVL23:
 323              	.L16:
 324              	.LCFI7:
 325              		.cfi_def_cfa_offset 0
 326              		.cfi_restore 4
 327              		.cfi_restore 14
 328 0026 7047     		bx	lr
 329              	.L18:
ARM GAS  /tmp/ccRZEVji.s 			page 10


 330              		.align	2
 331              	.L17:
 332 0028 00240140 		.word	1073816576
 333 002c 00100240 		.word	1073876992
 334 0030 00100140 		.word	1073811456
 335              		.cfi_endproc
 336              	.LFE66:
 338              		.section	.text.HAL_I2C_MspInit,"ax",%progbits
 339              		.align	2
 340              		.global	HAL_I2C_MspInit
 341              		.thumb
 342              		.thumb_func
 344              	HAL_I2C_MspInit:
 345              	.LFB67:
 189:./Src/stm32f1xx_hal_msp.c ****   }
 190:./Src/stm32f1xx_hal_msp.c ****   /* USER CODE BEGIN ADC1_MspDeInit 1 */
 191:./Src/stm32f1xx_hal_msp.c **** 
 192:./Src/stm32f1xx_hal_msp.c ****   /* USER CODE END ADC1_MspDeInit 1 */
 193:./Src/stm32f1xx_hal_msp.c **** 
 194:./Src/stm32f1xx_hal_msp.c **** }
 195:./Src/stm32f1xx_hal_msp.c **** 
 196:./Src/stm32f1xx_hal_msp.c **** void HAL_I2C_MspInit(I2C_HandleTypeDef* hi2c)
 197:./Src/stm32f1xx_hal_msp.c **** {
 346              		.loc 1 197 0
 347              		.cfi_startproc
 348              		@ args = 0, pretend = 0, frame = 32
 349              		@ frame_needed = 0, uses_anonymous_args = 0
 350              	.LVL24:
 198:./Src/stm32f1xx_hal_msp.c **** 
 199:./Src/stm32f1xx_hal_msp.c ****   GPIO_InitTypeDef GPIO_InitStruct;
 200:./Src/stm32f1xx_hal_msp.c **** 
 201:./Src/stm32f1xx_hal_msp.c ****   if(hi2c->Instance==I2C2)
 351              		.loc 1 201 0
 352 0000 0268     		ldr	r2, [r0]
 353 0002 374B     		ldr	r3, .L25
 354 0004 9A42     		cmp	r2, r3
 355 0006 6AD1     		bne	.L24
 197:./Src/stm32f1xx_hal_msp.c **** 
 356              		.loc 1 197 0
 357 0008 30B5     		push	{r4, r5, lr}
 358              	.LCFI8:
 359              		.cfi_def_cfa_offset 12
 360              		.cfi_offset 4, -12
 361              		.cfi_offset 5, -8
 362              		.cfi_offset 14, -4
 363 000a 89B0     		sub	sp, sp, #36
 364              	.LCFI9:
 365              		.cfi_def_cfa_offset 48
 366 000c 0446     		mov	r4, r0
 367              	.LBB5:
 202:./Src/stm32f1xx_hal_msp.c ****   {
 203:./Src/stm32f1xx_hal_msp.c ****     __HAL_RCC_DMA1_CLK_ENABLE();
 368              		.loc 1 203 0
 369 000e 354D     		ldr	r5, .L25+4
 370 0010 6B69     		ldr	r3, [r5, #20]
 371 0012 43F00103 		orr	r3, r3, #1
 372 0016 6B61     		str	r3, [r5, #20]
ARM GAS  /tmp/ccRZEVji.s 			page 11


 373 0018 6B69     		ldr	r3, [r5, #20]
 374 001a 03F00103 		and	r3, r3, #1
 375 001e 0193     		str	r3, [sp, #4]
 376 0020 019B     		ldr	r3, [sp, #4]
 377              	.LBE5:
 378              	.LBB6:
 204:./Src/stm32f1xx_hal_msp.c ****     __HAL_RCC_GPIOB_CLK_ENABLE();
 379              		.loc 1 204 0
 380 0022 AB69     		ldr	r3, [r5, #24]
 381 0024 43F00803 		orr	r3, r3, #8
 382 0028 AB61     		str	r3, [r5, #24]
 383 002a AB69     		ldr	r3, [r5, #24]
 384 002c 03F00803 		and	r3, r3, #8
 385 0030 0293     		str	r3, [sp, #8]
 386 0032 029B     		ldr	r3, [sp, #8]
 387              	.LBE6:
 205:./Src/stm32f1xx_hal_msp.c ****   /* USER CODE BEGIN I2C2_MspInit 0 */
 206:./Src/stm32f1xx_hal_msp.c **** 
 207:./Src/stm32f1xx_hal_msp.c ****   /* USER CODE END I2C2_MspInit 0 */
 208:./Src/stm32f1xx_hal_msp.c **** 
 209:./Src/stm32f1xx_hal_msp.c ****     /**I2C2 GPIO Configuration
 210:./Src/stm32f1xx_hal_msp.c ****     PB10     ------> I2C2_SCL
 211:./Src/stm32f1xx_hal_msp.c ****     PB11     ------> I2C2_SDA
 212:./Src/stm32f1xx_hal_msp.c ****     */
 213:./Src/stm32f1xx_hal_msp.c ****     GPIO_InitStruct.Pin = GPIO_PIN_10|GPIO_PIN_11;
 388              		.loc 1 213 0
 389 0034 4FF44063 		mov	r3, #3072
 390 0038 0493     		str	r3, [sp, #16]
 214:./Src/stm32f1xx_hal_msp.c ****     GPIO_InitStruct.Mode = GPIO_MODE_AF_OD;
 391              		.loc 1 214 0
 392 003a 1223     		movs	r3, #18
 393 003c 0593     		str	r3, [sp, #20]
 215:./Src/stm32f1xx_hal_msp.c ****     GPIO_InitStruct.Pull = GPIO_PULLUP;
 394              		.loc 1 215 0
 395 003e 0123     		movs	r3, #1
 396 0040 0693     		str	r3, [sp, #24]
 216:./Src/stm32f1xx_hal_msp.c ****     GPIO_InitStruct.Speed = GPIO_SPEED_FREQ_HIGH;
 397              		.loc 1 216 0
 398 0042 0323     		movs	r3, #3
 399 0044 0793     		str	r3, [sp, #28]
 217:./Src/stm32f1xx_hal_msp.c ****     HAL_GPIO_Init(GPIOB, &GPIO_InitStruct);
 400              		.loc 1 217 0
 401 0046 04A9     		add	r1, sp, #16
 402 0048 2748     		ldr	r0, .L25+8
 403              	.LVL25:
 404 004a FFF7FEFF 		bl	HAL_GPIO_Init
 405              	.LVL26:
 406              	.LBB7:
 218:./Src/stm32f1xx_hal_msp.c **** 
 219:./Src/stm32f1xx_hal_msp.c ****     /* Peripheral clock enable */
 220:./Src/stm32f1xx_hal_msp.c ****     __HAL_RCC_I2C2_CLK_ENABLE();
 407              		.loc 1 220 0
 408 004e EB69     		ldr	r3, [r5, #28]
 409 0050 43F48003 		orr	r3, r3, #4194304
 410 0054 EB61     		str	r3, [r5, #28]
 411 0056 EB69     		ldr	r3, [r5, #28]
 412 0058 03F48003 		and	r3, r3, #4194304
ARM GAS  /tmp/ccRZEVji.s 			page 12


 413 005c 0393     		str	r3, [sp, #12]
 414 005e 039B     		ldr	r3, [sp, #12]
 415              	.LBE7:
 221:./Src/stm32f1xx_hal_msp.c **** 
 222:./Src/stm32f1xx_hal_msp.c ****     /* Peripheral DMA init*/
 223:./Src/stm32f1xx_hal_msp.c **** 
 224:./Src/stm32f1xx_hal_msp.c ****     hdma_i2c2_rx.Instance = DMA1_Channel5;
 416              		.loc 1 224 0
 417 0060 2248     		ldr	r0, .L25+12
 418 0062 234B     		ldr	r3, .L25+16
 419 0064 0360     		str	r3, [r0]
 225:./Src/stm32f1xx_hal_msp.c ****     hdma_i2c2_rx.Init.Direction = DMA_PERIPH_TO_MEMORY;
 420              		.loc 1 225 0
 421 0066 0023     		movs	r3, #0
 422 0068 4360     		str	r3, [r0, #4]
 226:./Src/stm32f1xx_hal_msp.c ****     hdma_i2c2_rx.Init.PeriphInc = DMA_PINC_DISABLE;
 423              		.loc 1 226 0
 424 006a 8360     		str	r3, [r0, #8]
 227:./Src/stm32f1xx_hal_msp.c ****     hdma_i2c2_rx.Init.MemInc = DMA_MINC_ENABLE;
 425              		.loc 1 227 0
 426 006c 8022     		movs	r2, #128
 427 006e C260     		str	r2, [r0, #12]
 228:./Src/stm32f1xx_hal_msp.c ****     hdma_i2c2_rx.Init.PeriphDataAlignment = DMA_PDATAALIGN_BYTE;
 428              		.loc 1 228 0
 429 0070 0361     		str	r3, [r0, #16]
 229:./Src/stm32f1xx_hal_msp.c ****     hdma_i2c2_rx.Init.MemDataAlignment = DMA_MDATAALIGN_BYTE;
 430              		.loc 1 229 0
 431 0072 4361     		str	r3, [r0, #20]
 230:./Src/stm32f1xx_hal_msp.c ****     hdma_i2c2_rx.Init.Mode = DMA_NORMAL;
 432              		.loc 1 230 0
 433 0074 8361     		str	r3, [r0, #24]
 231:./Src/stm32f1xx_hal_msp.c ****     hdma_i2c2_rx.Init.Priority = DMA_PRIORITY_MEDIUM;
 434              		.loc 1 231 0
 435 0076 4FF48053 		mov	r3, #4096
 436 007a C361     		str	r3, [r0, #28]
 232:./Src/stm32f1xx_hal_msp.c ****     if (HAL_DMA_Init(&hdma_i2c2_rx) != HAL_OK)
 437              		.loc 1 232 0
 438 007c FFF7FEFF 		bl	HAL_DMA_Init
 439              	.LVL27:
 440 0080 08B1     		cbz	r0, .L21
 233:./Src/stm32f1xx_hal_msp.c ****     {
 234:./Src/stm32f1xx_hal_msp.c ****       Error_Handler();
 441              		.loc 1 234 0
 442 0082 FFF7FEFF 		bl	Error_Handler
 443              	.LVL28:
 444              	.L21:
 235:./Src/stm32f1xx_hal_msp.c ****     }
 236:./Src/stm32f1xx_hal_msp.c **** 
 237:./Src/stm32f1xx_hal_msp.c ****     __HAL_LINKDMA(hi2c,hdmarx,hdma_i2c2_rx);
 445              		.loc 1 237 0
 446 0086 194B     		ldr	r3, .L25+12
 447 0088 2363     		str	r3, [r4, #48]
 448 008a 5C62     		str	r4, [r3, #36]
 238:./Src/stm32f1xx_hal_msp.c **** 
 239:./Src/stm32f1xx_hal_msp.c ****     hdma_i2c2_tx.Instance = DMA1_Channel4;
 449              		.loc 1 239 0
 450 008c 1948     		ldr	r0, .L25+20
ARM GAS  /tmp/ccRZEVji.s 			page 13


 451 008e 1A4B     		ldr	r3, .L25+24
 452 0090 0360     		str	r3, [r0]
 240:./Src/stm32f1xx_hal_msp.c ****     hdma_i2c2_tx.Init.Direction = DMA_MEMORY_TO_PERIPH;
 453              		.loc 1 240 0
 454 0092 1023     		movs	r3, #16
 455 0094 4360     		str	r3, [r0, #4]
 241:./Src/stm32f1xx_hal_msp.c ****     hdma_i2c2_tx.Init.PeriphInc = DMA_PINC_DISABLE;
 456              		.loc 1 241 0
 457 0096 0023     		movs	r3, #0
 458 0098 8360     		str	r3, [r0, #8]
 242:./Src/stm32f1xx_hal_msp.c ****     hdma_i2c2_tx.Init.MemInc = DMA_MINC_ENABLE;
 459              		.loc 1 242 0
 460 009a 8022     		movs	r2, #128
 461 009c C260     		str	r2, [r0, #12]
 243:./Src/stm32f1xx_hal_msp.c ****     hdma_i2c2_tx.Init.PeriphDataAlignment = DMA_PDATAALIGN_BYTE;
 462              		.loc 1 243 0
 463 009e 0361     		str	r3, [r0, #16]
 244:./Src/stm32f1xx_hal_msp.c ****     hdma_i2c2_tx.Init.MemDataAlignment = DMA_MDATAALIGN_BYTE;
 464              		.loc 1 244 0
 465 00a0 4361     		str	r3, [r0, #20]
 245:./Src/stm32f1xx_hal_msp.c ****     hdma_i2c2_tx.Init.Mode = DMA_NORMAL;
 466              		.loc 1 245 0
 467 00a2 8361     		str	r3, [r0, #24]
 246:./Src/stm32f1xx_hal_msp.c ****     hdma_i2c2_tx.Init.Priority = DMA_PRIORITY_MEDIUM;
 468              		.loc 1 246 0
 469 00a4 4FF48053 		mov	r3, #4096
 470 00a8 C361     		str	r3, [r0, #28]
 247:./Src/stm32f1xx_hal_msp.c ****     if (HAL_DMA_Init(&hdma_i2c2_tx) != HAL_OK)
 471              		.loc 1 247 0
 472 00aa FFF7FEFF 		bl	HAL_DMA_Init
 473              	.LVL29:
 474 00ae 08B1     		cbz	r0, .L22
 248:./Src/stm32f1xx_hal_msp.c ****     {
 249:./Src/stm32f1xx_hal_msp.c ****       Error_Handler();
 475              		.loc 1 249 0
 476 00b0 FFF7FEFF 		bl	Error_Handler
 477              	.LVL30:
 478              	.L22:
 250:./Src/stm32f1xx_hal_msp.c ****     }
 251:./Src/stm32f1xx_hal_msp.c **** 
 252:./Src/stm32f1xx_hal_msp.c ****     __HAL_LINKDMA(hi2c,hdmatx,hdma_i2c2_tx);
 479              		.loc 1 252 0
 480 00b4 0F4B     		ldr	r3, .L25+20
 481 00b6 E362     		str	r3, [r4, #44]
 482 00b8 5C62     		str	r4, [r3, #36]
 253:./Src/stm32f1xx_hal_msp.c **** 
 254:./Src/stm32f1xx_hal_msp.c ****     /* Peripheral interrupt init */
 255:./Src/stm32f1xx_hal_msp.c ****     HAL_NVIC_SetPriority(I2C2_EV_IRQn, 0, 0);
 483              		.loc 1 255 0
 484 00ba 0022     		movs	r2, #0
 485 00bc 1146     		mov	r1, r2
 486 00be 2120     		movs	r0, #33
 487 00c0 FFF7FEFF 		bl	HAL_NVIC_SetPriority
 488              	.LVL31:
 256:./Src/stm32f1xx_hal_msp.c ****     HAL_NVIC_EnableIRQ(I2C2_EV_IRQn);
 489              		.loc 1 256 0
 490 00c4 2120     		movs	r0, #33
ARM GAS  /tmp/ccRZEVji.s 			page 14


 491 00c6 FFF7FEFF 		bl	HAL_NVIC_EnableIRQ
 492              	.LVL32:
 257:./Src/stm32f1xx_hal_msp.c ****     HAL_NVIC_SetPriority(I2C2_ER_IRQn, 0, 0);
 493              		.loc 1 257 0
 494 00ca 0022     		movs	r2, #0
 495 00cc 1146     		mov	r1, r2
 496 00ce 2220     		movs	r0, #34
 497 00d0 FFF7FEFF 		bl	HAL_NVIC_SetPriority
 498              	.LVL33:
 258:./Src/stm32f1xx_hal_msp.c ****     HAL_NVIC_EnableIRQ(I2C2_ER_IRQn);
 499              		.loc 1 258 0
 500 00d4 2220     		movs	r0, #34
 501 00d6 FFF7FEFF 		bl	HAL_NVIC_EnableIRQ
 502              	.LVL34:
 259:./Src/stm32f1xx_hal_msp.c ****   /* USER CODE BEGIN I2C2_MspInit 1 */
 260:./Src/stm32f1xx_hal_msp.c **** 
 261:./Src/stm32f1xx_hal_msp.c ****   /* USER CODE END I2C2_MspInit 1 */
 262:./Src/stm32f1xx_hal_msp.c ****   }
 263:./Src/stm32f1xx_hal_msp.c **** 
 264:./Src/stm32f1xx_hal_msp.c **** }
 503              		.loc 1 264 0
 504 00da 09B0     		add	sp, sp, #36
 505              	.LCFI10:
 506              		.cfi_def_cfa_offset 12
 507              		@ sp needed
 508 00dc 30BD     		pop	{r4, r5, pc}
 509              	.LVL35:
 510              	.L24:
 511              	.LCFI11:
 512              		.cfi_def_cfa_offset 0
 513              		.cfi_restore 4
 514              		.cfi_restore 5
 515              		.cfi_restore 14
 516 00de 7047     		bx	lr
 517              	.L26:
 518              		.align	2
 519              	.L25:
 520 00e0 00580040 		.word	1073764352
 521 00e4 00100240 		.word	1073876992
 522 00e8 000C0140 		.word	1073810432
 523 00ec 00000000 		.word	hdma_i2c2_rx
 524 00f0 58000240 		.word	1073872984
 525 00f4 00000000 		.word	hdma_i2c2_tx
 526 00f8 44000240 		.word	1073872964
 527              		.cfi_endproc
 528              	.LFE67:
 530              		.section	.text.HAL_I2C_MspDeInit,"ax",%progbits
 531              		.align	2
 532              		.global	HAL_I2C_MspDeInit
 533              		.thumb
 534              		.thumb_func
 536              	HAL_I2C_MspDeInit:
 537              	.LFB68:
 265:./Src/stm32f1xx_hal_msp.c **** 
 266:./Src/stm32f1xx_hal_msp.c **** void HAL_I2C_MspDeInit(I2C_HandleTypeDef* hi2c)
 267:./Src/stm32f1xx_hal_msp.c **** {
 538              		.loc 1 267 0
ARM GAS  /tmp/ccRZEVji.s 			page 15


 539              		.cfi_startproc
 540              		@ args = 0, pretend = 0, frame = 0
 541              		@ frame_needed = 0, uses_anonymous_args = 0
 542              	.LVL36:
 268:./Src/stm32f1xx_hal_msp.c **** 
 269:./Src/stm32f1xx_hal_msp.c ****   if(hi2c->Instance==I2C2)
 543              		.loc 1 269 0
 544 0000 0268     		ldr	r2, [r0]
 545 0002 0D4B     		ldr	r3, .L31
 546 0004 9A42     		cmp	r2, r3
 547 0006 15D1     		bne	.L30
 267:./Src/stm32f1xx_hal_msp.c **** 
 548              		.loc 1 267 0
 549 0008 10B5     		push	{r4, lr}
 550              	.LCFI12:
 551              		.cfi_def_cfa_offset 8
 552              		.cfi_offset 4, -8
 553              		.cfi_offset 14, -4
 554 000a 0446     		mov	r4, r0
 270:./Src/stm32f1xx_hal_msp.c ****   {
 271:./Src/stm32f1xx_hal_msp.c ****   /* USER CODE BEGIN I2C2_MspDeInit 0 */
 272:./Src/stm32f1xx_hal_msp.c **** 
 273:./Src/stm32f1xx_hal_msp.c ****   /* USER CODE END I2C2_MspDeInit 0 */
 274:./Src/stm32f1xx_hal_msp.c ****     /* Peripheral clock disable */
 275:./Src/stm32f1xx_hal_msp.c ****     __HAL_RCC_I2C2_CLK_DISABLE();
 555              		.loc 1 275 0
 556 000c 0B4A     		ldr	r2, .L31+4
 557 000e D369     		ldr	r3, [r2, #28]
 558 0010 23F48003 		bic	r3, r3, #4194304
 559 0014 D361     		str	r3, [r2, #28]
 276:./Src/stm32f1xx_hal_msp.c **** 
 277:./Src/stm32f1xx_hal_msp.c ****     /**I2C2 GPIO Configuration
 278:./Src/stm32f1xx_hal_msp.c ****     PB10     ------> I2C2_SCL
 279:./Src/stm32f1xx_hal_msp.c ****     PB11     ------> I2C2_SDA
 280:./Src/stm32f1xx_hal_msp.c ****     */
 281:./Src/stm32f1xx_hal_msp.c ****     HAL_GPIO_DeInit(GPIOB, GPIO_PIN_10|GPIO_PIN_11);
 560              		.loc 1 281 0
 561 0016 4FF44061 		mov	r1, #3072
 562 001a 0948     		ldr	r0, .L31+8
 563              	.LVL37:
 564 001c FFF7FEFF 		bl	HAL_GPIO_DeInit
 565              	.LVL38:
 282:./Src/stm32f1xx_hal_msp.c **** 
 283:./Src/stm32f1xx_hal_msp.c ****     /* Peripheral DMA DeInit*/
 284:./Src/stm32f1xx_hal_msp.c ****     HAL_DMA_DeInit(hi2c->hdmarx);
 566              		.loc 1 284 0
 567 0020 206B     		ldr	r0, [r4, #48]
 568 0022 FFF7FEFF 		bl	HAL_DMA_DeInit
 569              	.LVL39:
 285:./Src/stm32f1xx_hal_msp.c ****     HAL_DMA_DeInit(hi2c->hdmatx);
 570              		.loc 1 285 0
 571 0026 E06A     		ldr	r0, [r4, #44]
 572 0028 FFF7FEFF 		bl	HAL_DMA_DeInit
 573              	.LVL40:
 286:./Src/stm32f1xx_hal_msp.c **** 
 287:./Src/stm32f1xx_hal_msp.c ****     /* Peripheral interrupt DeInit*/
 288:./Src/stm32f1xx_hal_msp.c ****     HAL_NVIC_DisableIRQ(I2C2_ER_IRQn);
ARM GAS  /tmp/ccRZEVji.s 			page 16


 574              		.loc 1 288 0
 575 002c 2220     		movs	r0, #34
 576 002e FFF7FEFF 		bl	HAL_NVIC_DisableIRQ
 577              	.LVL41:
 578 0032 10BD     		pop	{r4, pc}
 579              	.LVL42:
 580              	.L30:
 581              	.LCFI13:
 582              		.cfi_def_cfa_offset 0
 583              		.cfi_restore 4
 584              		.cfi_restore 14
 585 0034 7047     		bx	lr
 586              	.L32:
 587 0036 00BF     		.align	2
 588              	.L31:
 589 0038 00580040 		.word	1073764352
 590 003c 00100240 		.word	1073876992
 591 0040 000C0140 		.word	1073810432
 592              		.cfi_endproc
 593              	.LFE68:
 595              		.section	.text.HAL_TIM_PWM_MspDeInit,"ax",%progbits
 596              		.align	2
 597              		.global	HAL_TIM_PWM_MspDeInit
 598              		.thumb
 599              		.thumb_func
 601              	HAL_TIM_PWM_MspDeInit:
 602              	.LFB69:
 289:./Src/stm32f1xx_hal_msp.c **** 
 290:./Src/stm32f1xx_hal_msp.c ****   }
 291:./Src/stm32f1xx_hal_msp.c ****   /* USER CODE BEGIN I2C2_MspDeInit 1 */
 292:./Src/stm32f1xx_hal_msp.c **** 
 293:./Src/stm32f1xx_hal_msp.c ****   /* USER CODE END I2C2_MspDeInit 1 */
 294:./Src/stm32f1xx_hal_msp.c **** 
 295:./Src/stm32f1xx_hal_msp.c **** }
 296:./Src/stm32f1xx_hal_msp.c **** 
 297:./Src/stm32f1xx_hal_msp.c **** 
 298:./Src/stm32f1xx_hal_msp.c **** 
 299:./Src/stm32f1xx_hal_msp.c **** void HAL_TIM_PWM_MspDeInit(TIM_HandleTypeDef* htim_pwm)
 300:./Src/stm32f1xx_hal_msp.c **** {
 603              		.loc 1 300 0
 604              		.cfi_startproc
 605              		@ args = 0, pretend = 0, frame = 0
 606              		@ frame_needed = 0, uses_anonymous_args = 0
 607              	.LVL43:
 608 0000 08B5     		push	{r3, lr}
 609              	.LCFI14:
 610              		.cfi_def_cfa_offset 8
 611              		.cfi_offset 3, -8
 612              		.cfi_offset 14, -4
 301:./Src/stm32f1xx_hal_msp.c **** 
 302:./Src/stm32f1xx_hal_msp.c ****   if(htim_pwm->Instance==TIM1)
 613              		.loc 1 302 0
 614 0002 0368     		ldr	r3, [r0]
 615 0004 0C4A     		ldr	r2, .L37
 616 0006 9342     		cmp	r3, r2
 617 0008 09D1     		bne	.L34
 303:./Src/stm32f1xx_hal_msp.c ****   {
ARM GAS  /tmp/ccRZEVji.s 			page 17


 304:./Src/stm32f1xx_hal_msp.c ****   /* USER CODE BEGIN TIM1_MspDeInit 0 */
 305:./Src/stm32f1xx_hal_msp.c **** 
 306:./Src/stm32f1xx_hal_msp.c ****   /* USER CODE END TIM1_MspDeInit 0 */
 307:./Src/stm32f1xx_hal_msp.c ****     /* Peripheral clock disable */
 308:./Src/stm32f1xx_hal_msp.c ****     __HAL_RCC_TIM1_CLK_DISABLE();
 618              		.loc 1 308 0
 619 000a 02F56442 		add	r2, r2, #58368
 620 000e 9369     		ldr	r3, [r2, #24]
 621 0010 23F40063 		bic	r3, r3, #2048
 622 0014 9361     		str	r3, [r2, #24]
 309:./Src/stm32f1xx_hal_msp.c **** 
 310:./Src/stm32f1xx_hal_msp.c ****     /* Peripheral interrupt DeInit*/
 311:./Src/stm32f1xx_hal_msp.c ****     HAL_NVIC_DisableIRQ(TIM1_CC_IRQn);
 623              		.loc 1 311 0
 624 0016 1B20     		movs	r0, #27
 625              	.LVL44:
 626 0018 FFF7FEFF 		bl	HAL_NVIC_DisableIRQ
 627              	.LVL45:
 628 001c 08BD     		pop	{r3, pc}
 629              	.LVL46:
 630              	.L34:
 312:./Src/stm32f1xx_hal_msp.c **** 
 313:./Src/stm32f1xx_hal_msp.c ****   /* USER CODE BEGIN TIM1_MspDeInit 1 */
 314:./Src/stm32f1xx_hal_msp.c **** 
 315:./Src/stm32f1xx_hal_msp.c ****   /* USER CODE END TIM1_MspDeInit 1 */
 316:./Src/stm32f1xx_hal_msp.c ****   }
 317:./Src/stm32f1xx_hal_msp.c ****   else if(htim_pwm->Instance==TIM8)
 631              		.loc 1 317 0
 632 001e 074A     		ldr	r2, .L37+4
 633 0020 9342     		cmp	r3, r2
 634 0022 08D1     		bne	.L33
 318:./Src/stm32f1xx_hal_msp.c ****   {
 319:./Src/stm32f1xx_hal_msp.c ****   /* USER CODE BEGIN TIM8_MspDeInit 0 */
 320:./Src/stm32f1xx_hal_msp.c **** 
 321:./Src/stm32f1xx_hal_msp.c ****   /* USER CODE END TIM8_MspDeInit 0 */
 322:./Src/stm32f1xx_hal_msp.c ****     /* Peripheral clock disable */
 323:./Src/stm32f1xx_hal_msp.c ****     __HAL_RCC_TIM8_CLK_DISABLE();
 635              		.loc 1 323 0
 636 0024 02F55C42 		add	r2, r2, #56320
 637 0028 9369     		ldr	r3, [r2, #24]
 638 002a 23F40053 		bic	r3, r3, #8192
 639 002e 9361     		str	r3, [r2, #24]
 324:./Src/stm32f1xx_hal_msp.c **** 
 325:./Src/stm32f1xx_hal_msp.c ****     /* Peripheral interrupt DeInit*/
 326:./Src/stm32f1xx_hal_msp.c ****     HAL_NVIC_DisableIRQ(TIM8_CC_IRQn);
 640              		.loc 1 326 0
 641 0030 2E20     		movs	r0, #46
 642              	.LVL47:
 643 0032 FFF7FEFF 		bl	HAL_NVIC_DisableIRQ
 644              	.LVL48:
 645              	.L33:
 646 0036 08BD     		pop	{r3, pc}
 647              	.L38:
 648              		.align	2
 649              	.L37:
 650 0038 002C0140 		.word	1073818624
 651 003c 00340140 		.word	1073820672
ARM GAS  /tmp/ccRZEVji.s 			page 18


 652              		.cfi_endproc
 653              	.LFE69:
 655              		.section	.text.HAL_UART_MspInit,"ax",%progbits
 656              		.align	2
 657              		.global	HAL_UART_MspInit
 658              		.thumb
 659              		.thumb_func
 661              	HAL_UART_MspInit:
 662              	.LFB70:
 327:./Src/stm32f1xx_hal_msp.c **** 
 328:./Src/stm32f1xx_hal_msp.c ****   /* USER CODE BEGIN TIM8_MspDeInit 1 */
 329:./Src/stm32f1xx_hal_msp.c **** 
 330:./Src/stm32f1xx_hal_msp.c ****   /* USER CODE END TIM8_MspDeInit 1 */
 331:./Src/stm32f1xx_hal_msp.c ****   }
 332:./Src/stm32f1xx_hal_msp.c **** 
 333:./Src/stm32f1xx_hal_msp.c **** }
 334:./Src/stm32f1xx_hal_msp.c **** 
 335:./Src/stm32f1xx_hal_msp.c **** void HAL_UART_MspInit(UART_HandleTypeDef* huart)
 336:./Src/stm32f1xx_hal_msp.c **** {
 663              		.loc 1 336 0
 664              		.cfi_startproc
 665              		@ args = 0, pretend = 0, frame = 32
 666              		@ frame_needed = 0, uses_anonymous_args = 0
 667              	.LVL49:
 337:./Src/stm32f1xx_hal_msp.c **** 
 338:./Src/stm32f1xx_hal_msp.c ****   GPIO_InitTypeDef GPIO_InitStruct;
 339:./Src/stm32f1xx_hal_msp.c ****   if(huart->Instance==USART2)
 668              		.loc 1 339 0
 669 0000 0268     		ldr	r2, [r0]
 670 0002 234B     		ldr	r3, .L44
 671 0004 9A42     		cmp	r2, r3
 672 0006 42D1     		bne	.L43
 336:./Src/stm32f1xx_hal_msp.c **** 
 673              		.loc 1 336 0
 674 0008 10B5     		push	{r4, lr}
 675              	.LCFI15:
 676              		.cfi_def_cfa_offset 8
 677              		.cfi_offset 4, -8
 678              		.cfi_offset 14, -4
 679 000a 88B0     		sub	sp, sp, #32
 680              	.LCFI16:
 681              		.cfi_def_cfa_offset 40
 682 000c 0446     		mov	r4, r0
 683              	.LBB8:
 340:./Src/stm32f1xx_hal_msp.c ****   {
 341:./Src/stm32f1xx_hal_msp.c ****      __HAL_RCC_DMA1_CLK_ENABLE();
 684              		.loc 1 341 0
 685 000e 03F5E633 		add	r3, r3, #117760
 686 0012 5A69     		ldr	r2, [r3, #20]
 687 0014 42F00102 		orr	r2, r2, #1
 688 0018 5A61     		str	r2, [r3, #20]
 689 001a 5A69     		ldr	r2, [r3, #20]
 690 001c 02F00102 		and	r2, r2, #1
 691 0020 0192     		str	r2, [sp, #4]
 692 0022 019A     		ldr	r2, [sp, #4]
 693              	.LBE8:
 694              	.LBB9:
ARM GAS  /tmp/ccRZEVji.s 			page 19


 342:./Src/stm32f1xx_hal_msp.c ****   /* USER CODE BEGIN USART2_MspInit 0 */
 343:./Src/stm32f1xx_hal_msp.c ****     __HAL_RCC_GPIOA_CLK_ENABLE();
 695              		.loc 1 343 0
 696 0024 9A69     		ldr	r2, [r3, #24]
 697 0026 42F00402 		orr	r2, r2, #4
 698 002a 9A61     		str	r2, [r3, #24]
 699 002c 9A69     		ldr	r2, [r3, #24]
 700 002e 02F00402 		and	r2, r2, #4
 701 0032 0292     		str	r2, [sp, #8]
 702 0034 029A     		ldr	r2, [sp, #8]
 703              	.LBE9:
 704              	.LBB10:
 344:./Src/stm32f1xx_hal_msp.c ****   /* USER CODE END USART2_MspInit 0 */
 345:./Src/stm32f1xx_hal_msp.c ****     /* Peripheral clock enable */
 346:./Src/stm32f1xx_hal_msp.c ****     __HAL_RCC_USART2_CLK_ENABLE();
 705              		.loc 1 346 0
 706 0036 DA69     		ldr	r2, [r3, #28]
 707 0038 42F40032 		orr	r2, r2, #131072
 708 003c DA61     		str	r2, [r3, #28]
 709 003e DB69     		ldr	r3, [r3, #28]
 710 0040 03F40033 		and	r3, r3, #131072
 711 0044 0393     		str	r3, [sp, #12]
 712 0046 039B     		ldr	r3, [sp, #12]
 713              	.LBE10:
 347:./Src/stm32f1xx_hal_msp.c **** 
 348:./Src/stm32f1xx_hal_msp.c ****     /**USART2 GPIO Configuration
 349:./Src/stm32f1xx_hal_msp.c ****     PA2     ------> USART2_TX
 350:./Src/stm32f1xx_hal_msp.c ****     PA3     ------> USART2_RX
 351:./Src/stm32f1xx_hal_msp.c ****     */
 352:./Src/stm32f1xx_hal_msp.c ****     GPIO_InitStruct.Pull = GPIO_PULLUP; //GPIO_NOPULL;
 714              		.loc 1 352 0
 715 0048 0123     		movs	r3, #1
 716 004a 0693     		str	r3, [sp, #24]
 353:./Src/stm32f1xx_hal_msp.c ****     GPIO_InitStruct.Pin = GPIO_PIN_2;
 717              		.loc 1 353 0
 718 004c 0423     		movs	r3, #4
 719 004e 0493     		str	r3, [sp, #16]
 354:./Src/stm32f1xx_hal_msp.c ****     GPIO_InitStruct.Mode = GPIO_MODE_AF_PP;
 720              		.loc 1 354 0
 721 0050 0223     		movs	r3, #2
 722 0052 0593     		str	r3, [sp, #20]
 355:./Src/stm32f1xx_hal_msp.c ****     GPIO_InitStruct.Speed = GPIO_SPEED_FREQ_HIGH;
 723              		.loc 1 355 0
 724 0054 0323     		movs	r3, #3
 725 0056 0793     		str	r3, [sp, #28]
 356:./Src/stm32f1xx_hal_msp.c ****     HAL_GPIO_Init(GPIOA, &GPIO_InitStruct);
 726              		.loc 1 356 0
 727 0058 04A9     		add	r1, sp, #16
 728 005a 0E48     		ldr	r0, .L44+4
 729              	.LVL50:
 730 005c FFF7FEFF 		bl	HAL_GPIO_Init
 731              	.LVL51:
 357:./Src/stm32f1xx_hal_msp.c **** 
 358:./Src/stm32f1xx_hal_msp.c ****     //GPIO_InitStruct.Pin = GPIO_PIN_3;
 359:./Src/stm32f1xx_hal_msp.c ****     //GPIO_InitStruct.Mode = GPIO_MODE_INPUT; //GPIO_MODE_AF_PP;
 360:./Src/stm32f1xx_hal_msp.c ****    // GPIO_InitStruct.Pull = GPIO_NOPULL;
 361:./Src/stm32f1xx_hal_msp.c ****     //HAL_GPIO_Init(GPIOA, &GPIO_InitStruct);
ARM GAS  /tmp/ccRZEVji.s 			page 20


 362:./Src/stm32f1xx_hal_msp.c **** 
 363:./Src/stm32f1xx_hal_msp.c ****     /* Peripheral DMA init*/
 364:./Src/stm32f1xx_hal_msp.c **** 
 365:./Src/stm32f1xx_hal_msp.c ****     /*hdma_usart2_rx.Instance = DMA1_Channel6;
 366:./Src/stm32f1xx_hal_msp.c ****     hdma_usart2_rx.Init.Direction = DMA_PERIPH_TO_MEMORY;
 367:./Src/stm32f1xx_hal_msp.c ****     hdma_usart2_rx.Init.PeriphInc = DMA_PINC_DISABLE;
 368:./Src/stm32f1xx_hal_msp.c ****     hdma_usart2_rx.Init.MemInc = DMA_MINC_ENABLE;
 369:./Src/stm32f1xx_hal_msp.c ****     hdma_usart2_rx.Init.PeriphDataAlignment = DMA_PDATAALIGN_BYTE;
 370:./Src/stm32f1xx_hal_msp.c ****     hdma_usart2_rx.Init.MemDataAlignment = DMA_MDATAALIGN_BYTE;
 371:./Src/stm32f1xx_hal_msp.c ****     hdma_usart2_rx.Init.Mode = DMA_CIRCULAR; //DMA_NORMAL;
 372:./Src/stm32f1xx_hal_msp.c ****     hdma_usart2_rx.Init.Priority = DMA_PRIORITY_LOW;
 373:./Src/stm32f1xx_hal_msp.c ****     if (HAL_DMA_Init(&hdma_usart2_rx) != HAL_OK)
 374:./Src/stm32f1xx_hal_msp.c ****     {
 375:./Src/stm32f1xx_hal_msp.c ****       Error_Handler();
 376:./Src/stm32f1xx_hal_msp.c ****     }*/
 377:./Src/stm32f1xx_hal_msp.c **** 
 378:./Src/stm32f1xx_hal_msp.c ****     //__HAL_LINKDMA(huart,hdmarx,hdma_usart2_rx);
 379:./Src/stm32f1xx_hal_msp.c **** 
 380:./Src/stm32f1xx_hal_msp.c ****     hdma_usart2_tx.Instance = DMA1_Channel7;
 732              		.loc 1 380 0
 733 0060 0D48     		ldr	r0, .L44+8
 734 0062 0E4B     		ldr	r3, .L44+12
 735 0064 0360     		str	r3, [r0]
 381:./Src/stm32f1xx_hal_msp.c ****     hdma_usart2_tx.Init.Direction = DMA_MEMORY_TO_PERIPH;
 736              		.loc 1 381 0
 737 0066 1023     		movs	r3, #16
 738 0068 4360     		str	r3, [r0, #4]
 382:./Src/stm32f1xx_hal_msp.c ****     hdma_usart2_tx.Init.PeriphInc = DMA_PINC_DISABLE;
 739              		.loc 1 382 0
 740 006a 0023     		movs	r3, #0
 741 006c 8360     		str	r3, [r0, #8]
 383:./Src/stm32f1xx_hal_msp.c ****     hdma_usart2_tx.Init.MemInc = DMA_MINC_ENABLE;
 742              		.loc 1 383 0
 743 006e 8022     		movs	r2, #128
 744 0070 C260     		str	r2, [r0, #12]
 384:./Src/stm32f1xx_hal_msp.c ****     hdma_usart2_tx.Init.PeriphDataAlignment = DMA_PDATAALIGN_BYTE;
 745              		.loc 1 384 0
 746 0072 0361     		str	r3, [r0, #16]
 385:./Src/stm32f1xx_hal_msp.c ****     hdma_usart2_tx.Init.MemDataAlignment = DMA_MDATAALIGN_BYTE;
 747              		.loc 1 385 0
 748 0074 4361     		str	r3, [r0, #20]
 386:./Src/stm32f1xx_hal_msp.c ****     hdma_usart2_tx.Init.Mode = DMA_NORMAL;
 749              		.loc 1 386 0
 750 0076 8361     		str	r3, [r0, #24]
 387:./Src/stm32f1xx_hal_msp.c ****     hdma_usart2_tx.Init.Priority = DMA_PRIORITY_LOW;
 751              		.loc 1 387 0
 752 0078 C361     		str	r3, [r0, #28]
 388:./Src/stm32f1xx_hal_msp.c ****     if (HAL_DMA_Init(&hdma_usart2_tx) != HAL_OK)
 753              		.loc 1 388 0
 754 007a FFF7FEFF 		bl	HAL_DMA_Init
 755              	.LVL52:
 756 007e 08B1     		cbz	r0, .L41
 389:./Src/stm32f1xx_hal_msp.c ****     {
 390:./Src/stm32f1xx_hal_msp.c ****       Error_Handler();
 757              		.loc 1 390 0
 758 0080 FFF7FEFF 		bl	Error_Handler
 759              	.LVL53:
ARM GAS  /tmp/ccRZEVji.s 			page 21


 760              	.L41:
 391:./Src/stm32f1xx_hal_msp.c ****     }
 392:./Src/stm32f1xx_hal_msp.c **** 
 393:./Src/stm32f1xx_hal_msp.c ****     __HAL_LINKDMA(huart,hdmatx,hdma_usart2_tx);
 761              		.loc 1 393 0
 762 0084 044B     		ldr	r3, .L44+8
 763 0086 2363     		str	r3, [r4, #48]
 764 0088 5C62     		str	r4, [r3, #36]
 394:./Src/stm32f1xx_hal_msp.c **** 
 395:./Src/stm32f1xx_hal_msp.c ****   /* USER CODE BEGIN USART2_MspInit 1 */
 396:./Src/stm32f1xx_hal_msp.c **** 
 397:./Src/stm32f1xx_hal_msp.c ****   /* USER CODE END USART2_MspInit 1 */
 398:./Src/stm32f1xx_hal_msp.c ****   }
 399:./Src/stm32f1xx_hal_msp.c **** 
 400:./Src/stm32f1xx_hal_msp.c **** }
 765              		.loc 1 400 0
 766 008a 08B0     		add	sp, sp, #32
 767              	.LCFI17:
 768              		.cfi_def_cfa_offset 8
 769              		@ sp needed
 770 008c 10BD     		pop	{r4, pc}
 771              	.LVL54:
 772              	.L43:
 773              	.LCFI18:
 774              		.cfi_def_cfa_offset 0
 775              		.cfi_restore 4
 776              		.cfi_restore 14
 777 008e 7047     		bx	lr
 778              	.L45:
 779              		.align	2
 780              	.L44:
 781 0090 00440040 		.word	1073759232
 782 0094 00080140 		.word	1073809408
 783 0098 00000000 		.word	hdma_usart2_tx
 784 009c 80000240 		.word	1073873024
 785              		.cfi_endproc
 786              	.LFE70:
 788              		.section	.text.HAL_UART_MspDeInit,"ax",%progbits
 789              		.align	2
 790              		.global	HAL_UART_MspDeInit
 791              		.thumb
 792              		.thumb_func
 794              	HAL_UART_MspDeInit:
 795              	.LFB71:
 401:./Src/stm32f1xx_hal_msp.c **** 
 402:./Src/stm32f1xx_hal_msp.c **** void HAL_UART_MspDeInit(UART_HandleTypeDef* huart)
 403:./Src/stm32f1xx_hal_msp.c **** {
 796              		.loc 1 403 0
 797              		.cfi_startproc
 798              		@ args = 0, pretend = 0, frame = 0
 799              		@ frame_needed = 0, uses_anonymous_args = 0
 800              	.LVL55:
 404:./Src/stm32f1xx_hal_msp.c **** 
 405:./Src/stm32f1xx_hal_msp.c ****   if(huart->Instance==USART2)
 801              		.loc 1 405 0
 802 0000 0268     		ldr	r2, [r0]
 803 0002 0B4B     		ldr	r3, .L50
ARM GAS  /tmp/ccRZEVji.s 			page 22


 804 0004 9A42     		cmp	r2, r3
 805 0006 11D1     		bne	.L49
 403:./Src/stm32f1xx_hal_msp.c **** 
 806              		.loc 1 403 0
 807 0008 10B5     		push	{r4, lr}
 808              	.LCFI19:
 809              		.cfi_def_cfa_offset 8
 810              		.cfi_offset 4, -8
 811              		.cfi_offset 14, -4
 812 000a 0446     		mov	r4, r0
 406:./Src/stm32f1xx_hal_msp.c ****   {
 407:./Src/stm32f1xx_hal_msp.c ****   /* USER CODE BEGIN USART2_MspDeInit 0 */
 408:./Src/stm32f1xx_hal_msp.c **** 
 409:./Src/stm32f1xx_hal_msp.c ****   /* USER CODE END USART2_MspDeInit 0 */
 410:./Src/stm32f1xx_hal_msp.c ****     /* Peripheral clock disable */
 411:./Src/stm32f1xx_hal_msp.c ****     __HAL_RCC_USART2_CLK_DISABLE();
 813              		.loc 1 411 0
 814 000c 094A     		ldr	r2, .L50+4
 815 000e D369     		ldr	r3, [r2, #28]
 816 0010 23F40033 		bic	r3, r3, #131072
 817 0014 D361     		str	r3, [r2, #28]
 412:./Src/stm32f1xx_hal_msp.c **** 
 413:./Src/stm32f1xx_hal_msp.c ****     /**USART2 GPIO Configuration
 414:./Src/stm32f1xx_hal_msp.c ****     PA2     ------> USART2_TX
 415:./Src/stm32f1xx_hal_msp.c ****     PA3     ------> USART2_RX
 416:./Src/stm32f1xx_hal_msp.c ****     */
 417:./Src/stm32f1xx_hal_msp.c ****     HAL_GPIO_DeInit(GPIOA, GPIO_PIN_2|GPIO_PIN_3);
 818              		.loc 1 417 0
 819 0016 0C21     		movs	r1, #12
 820 0018 0748     		ldr	r0, .L50+8
 821              	.LVL56:
 822 001a FFF7FEFF 		bl	HAL_GPIO_DeInit
 823              	.LVL57:
 418:./Src/stm32f1xx_hal_msp.c **** 
 419:./Src/stm32f1xx_hal_msp.c ****     /* Peripheral DMA DeInit*/
 420:./Src/stm32f1xx_hal_msp.c ****     HAL_DMA_DeInit(huart->hdmarx);
 824              		.loc 1 420 0
 825 001e 606B     		ldr	r0, [r4, #52]
 826 0020 FFF7FEFF 		bl	HAL_DMA_DeInit
 827              	.LVL58:
 421:./Src/stm32f1xx_hal_msp.c ****     HAL_DMA_DeInit(huart->hdmatx);
 828              		.loc 1 421 0
 829 0024 206B     		ldr	r0, [r4, #48]
 830 0026 FFF7FEFF 		bl	HAL_DMA_DeInit
 831              	.LVL59:
 832 002a 10BD     		pop	{r4, pc}
 833              	.LVL60:
 834              	.L49:
 835              	.LCFI20:
 836              		.cfi_def_cfa_offset 0
 837              		.cfi_restore 4
 838              		.cfi_restore 14
 839 002c 7047     		bx	lr
 840              	.L51:
 841 002e 00BF     		.align	2
 842              	.L50:
 843 0030 00440040 		.word	1073759232
ARM GAS  /tmp/ccRZEVji.s 			page 23


 844 0034 00100240 		.word	1073876992
 845 0038 00080140 		.word	1073809408
 846              		.cfi_endproc
 847              	.LFE71:
 849              		.text
 850              	.Letext0:
 851              		.file 2 "/home/niklas/gcc-arm-none-eabi-5_4-2016q3/arm-none-eabi/include/machine/_default_types.h"
 852              		.file 3 "/home/niklas/gcc-arm-none-eabi-5_4-2016q3/arm-none-eabi/include/sys/_stdint.h"
 853              		.file 4 "./Drivers/CMSIS/Device/ST/STM32F1xx/Include/stm32f103xe.h"
 854              		.file 5 "./Drivers/STM32F1xx_HAL_Driver/Inc/stm32f1xx_hal_def.h"
 855              		.file 6 "./Drivers/STM32F1xx_HAL_Driver/Inc/stm32f1xx_hal_gpio.h"
 856              		.file 7 "./Drivers/STM32F1xx_HAL_Driver/Inc/stm32f1xx_hal_dma.h"
 857              		.file 8 "./Drivers/STM32F1xx_HAL_Driver/Inc/stm32f1xx_hal_adc.h"
 858              		.file 9 "./Drivers/STM32F1xx_HAL_Driver/Inc/stm32f1xx_hal_i2c.h"
 859              		.file 10 "./Drivers/STM32F1xx_HAL_Driver/Inc/stm32f1xx_hal_tim.h"
 860              		.file 11 "./Drivers/STM32F1xx_HAL_Driver/Inc/stm32f1xx_hal_uart.h"
 861              		.file 12 "./Drivers/CMSIS/Include/core_cm3.h"
 862              		.file 13 "./Drivers/STM32F1xx_HAL_Driver/Inc/stm32f1xx_hal_cortex.h"
ARM GAS  /tmp/ccRZEVji.s 			page 24

