ARM GAS  /tmp/ccoTvhMz.s 			page 1


   1              		.syntax unified
   2              		.cpu cortex-m3
   3              		.fpu softvfp
   4              		.eabi_attribute 20, 1
   5              		.eabi_attribute 21, 1
   6              		.eabi_attribute 23, 3
   7              		.eabi_attribute 24, 1
   8              		.eabi_attribute 25, 1
   9              		.eabi_attribute 26, 1
  10              		.eabi_attribute 30, 1
  11              		.eabi_attribute 34, 1
  12              		.eabi_attribute 18, 4
  13              		.thumb
  14              		.syntax unified
  15              		.file	"varie.c"
  16              		.text
  17              	.Ltext0:
  18              		.cfi_sections	.debug_frame
  19              		.section	.text.Led_init,"ax",%progbits
  20              		.align	2
  21              		.global	Led_init
  22              		.thumb
  23              		.thumb_func
  25              	Led_init:
  26              	.LFB65:
  27              		.file 1 "./Src/varie.c"
   1:./Src/varie.c **** #include "varie.h"
   2:./Src/varie.c **** #include "stm32f1xx_hal.h"
   3:./Src/varie.c **** #include "delay.h"
   4:./Src/varie.c **** 
   5:./Src/varie.c **** extern IWDG_HandleTypeDef hiwdg;
   6:./Src/varie.c **** 
   7:./Src/varie.c **** void Buzzer_init(void){
   8:./Src/varie.c ****   GPIO_InitTypeDef GPIO_InitStruct;
   9:./Src/varie.c ****   __HAL_RCC_GPIOA_CLK_ENABLE();
  10:./Src/varie.c ****   /*Configure GPIO pin Output Level */
  11:./Src/varie.c ****   HAL_GPIO_WritePin(BUZZER_GPIO_Port, BUZZER_Pin, GPIO_PIN_RESET);
  12:./Src/varie.c ****   /*Configure GPIO pin : BUZZER_Pin */
  13:./Src/varie.c ****   GPIO_InitStruct.Pin = BUZZER_Pin;
  14:./Src/varie.c ****   GPIO_InitStruct.Mode = GPIO_MODE_OUTPUT_PP;
  15:./Src/varie.c ****   GPIO_InitStruct.Speed = GPIO_SPEED_FREQ_LOW;
  16:./Src/varie.c ****   HAL_GPIO_Init(BUZZER_GPIO_Port, &GPIO_InitStruct);
  17:./Src/varie.c ****   Buzzer_Set(0);
  18:./Src/varie.c ****   Buzzer_Set(1);
  19:./Src/varie.c ****   Buzzer_Set(0);
  20:./Src/varie.c **** }
  21:./Src/varie.c **** 
  22:./Src/varie.c **** void Led_init(void){
  28              		.loc 1 22 0
  29              		.cfi_startproc
  30              		@ args = 0, pretend = 0, frame = 24
  31              		@ frame_needed = 0, uses_anonymous_args = 0
  32 0000 10B5     		push	{r4, lr}
  33              	.LCFI0:
  34              		.cfi_def_cfa_offset 8
  35              		.cfi_offset 4, -8
  36              		.cfi_offset 14, -4
ARM GAS  /tmp/ccoTvhMz.s 			page 2


  37 0002 86B0     		sub	sp, sp, #24
  38              	.LCFI1:
  39              		.cfi_def_cfa_offset 32
  40              	.LBB2:
  23:./Src/varie.c ****   GPIO_InitTypeDef GPIO_InitStruct;
  24:./Src/varie.c ****   __HAL_RCC_GPIOB_CLK_ENABLE();
  41              		.loc 1 24 0
  42 0004 0D4B     		ldr	r3, .L3
  43 0006 9A69     		ldr	r2, [r3, #24]
  44 0008 42F00802 		orr	r2, r2, #8
  45 000c 9A61     		str	r2, [r3, #24]
  46 000e 9B69     		ldr	r3, [r3, #24]
  47 0010 03F00803 		and	r3, r3, #8
  48 0014 0193     		str	r3, [sp, #4]
  49 0016 019B     		ldr	r3, [sp, #4]
  50              	.LBE2:
  25:./Src/varie.c ****   /*Configure GPIO pin Output Level */
  26:./Src/varie.c ****   HAL_GPIO_WritePin(LED_GPIO_Port, LED_Pin, GPIO_PIN_RESET);
  51              		.loc 1 26 0
  52 0018 094C     		ldr	r4, .L3+4
  53 001a 0022     		movs	r2, #0
  54 001c 0421     		movs	r1, #4
  55 001e 2046     		mov	r0, r4
  56 0020 FFF7FEFF 		bl	HAL_GPIO_WritePin
  57              	.LVL0:
  27:./Src/varie.c ****   /*Configure GPIO pin : LED_Pin */
  28:./Src/varie.c ****   GPIO_InitStruct.Pin = LED_Pin;
  58              		.loc 1 28 0
  59 0024 0423     		movs	r3, #4
  60 0026 0293     		str	r3, [sp, #8]
  29:./Src/varie.c ****   GPIO_InitStruct.Mode = GPIO_MODE_OUTPUT_PP;
  61              		.loc 1 29 0
  62 0028 0123     		movs	r3, #1
  63 002a 0393     		str	r3, [sp, #12]
  30:./Src/varie.c ****   GPIO_InitStruct.Speed = GPIO_SPEED_FREQ_LOW;
  64              		.loc 1 30 0
  65 002c 0223     		movs	r3, #2
  66 002e 0593     		str	r3, [sp, #20]
  31:./Src/varie.c ****   HAL_GPIO_Init(LED_GPIO_Port, &GPIO_InitStruct);
  67              		.loc 1 31 0
  68 0030 02A9     		add	r1, sp, #8
  69 0032 2046     		mov	r0, r4
  70 0034 FFF7FEFF 		bl	HAL_GPIO_Init
  71              	.LVL1:
  32:./Src/varie.c **** }
  72              		.loc 1 32 0
  73 0038 06B0     		add	sp, sp, #24
  74              	.LCFI2:
  75              		.cfi_def_cfa_offset 8
  76              		@ sp needed
  77 003a 10BD     		pop	{r4, pc}
  78              	.L4:
  79              		.align	2
  80              	.L3:
  81 003c 00100240 		.word	1073876992
  82 0040 000C0140 		.word	1073810432
  83              		.cfi_endproc
ARM GAS  /tmp/ccoTvhMz.s 			page 3


  84              	.LFE65:
  86              		.section	.text.IS_Charge_init,"ax",%progbits
  87              		.align	2
  88              		.global	IS_Charge_init
  89              		.thumb
  90              		.thumb_func
  92              	IS_Charge_init:
  93              	.LFB66:
  33:./Src/varie.c **** 
  34:./Src/varie.c **** void IS_Charge_init(void){
  94              		.loc 1 34 0
  95              		.cfi_startproc
  96              		@ args = 0, pretend = 0, frame = 24
  97              		@ frame_needed = 0, uses_anonymous_args = 0
  98 0000 00B5     		push	{lr}
  99              	.LCFI3:
 100              		.cfi_def_cfa_offset 4
 101              		.cfi_offset 14, -4
 102 0002 87B0     		sub	sp, sp, #28
 103              	.LCFI4:
 104              		.cfi_def_cfa_offset 32
 105              	.LBB3:
  35:./Src/varie.c ****   GPIO_InitTypeDef GPIO_InitStruct;
  36:./Src/varie.c ****   __HAL_RCC_GPIOA_CLK_ENABLE();
 106              		.loc 1 36 0
 107 0004 0B4B     		ldr	r3, .L7
 108 0006 9A69     		ldr	r2, [r3, #24]
 109 0008 42F00402 		orr	r2, r2, #4
 110 000c 9A61     		str	r2, [r3, #24]
 111 000e 9B69     		ldr	r3, [r3, #24]
 112 0010 03F00403 		and	r3, r3, #4
 113 0014 0193     		str	r3, [sp, #4]
 114 0016 019B     		ldr	r3, [sp, #4]
 115              	.LBE3:
  37:./Src/varie.c ****   /*Configure GPIO pin : IS_CHARGE_Pin */
  38:./Src/varie.c ****   GPIO_InitStruct.Pin = IS_CHARGE_Pin;
 116              		.loc 1 38 0
 117 0018 4FF48053 		mov	r3, #4096
 118 001c 0293     		str	r3, [sp, #8]
  39:./Src/varie.c ****   GPIO_InitStruct.Mode = GPIO_MODE_INPUT;
 119              		.loc 1 39 0
 120 001e 0023     		movs	r3, #0
 121 0020 0393     		str	r3, [sp, #12]
  40:./Src/varie.c ****   GPIO_InitStruct.Pull = GPIO_PULLUP;
 122              		.loc 1 40 0
 123 0022 0123     		movs	r3, #1
 124 0024 0493     		str	r3, [sp, #16]
  41:./Src/varie.c ****   HAL_GPIO_Init(IS_CHARGE_GPIO_Port, &GPIO_InitStruct);
 125              		.loc 1 41 0
 126 0026 02A9     		add	r1, sp, #8
 127 0028 0348     		ldr	r0, .L7+4
 128 002a FFF7FEFF 		bl	HAL_GPIO_Init
 129              	.LVL2:
  42:./Src/varie.c **** }
 130              		.loc 1 42 0
 131 002e 07B0     		add	sp, sp, #28
 132              	.LCFI5:
ARM GAS  /tmp/ccoTvhMz.s 			page 4


 133              		.cfi_def_cfa_offset 4
 134              		@ sp needed
 135 0030 5DF804FB 		ldr	pc, [sp], #4
 136              	.L8:
 137              		.align	2
 138              	.L7:
 139 0034 00100240 		.word	1073876992
 140 0038 00080140 		.word	1073809408
 141              		.cfi_endproc
 142              	.LFE66:
 144              		.section	.text.Led_Set,"ax",%progbits
 145              		.align	2
 146              		.global	Led_Set
 147              		.thumb
 148              		.thumb_func
 150              	Led_Set:
 151              	.LFB67:
  43:./Src/varie.c **** 
  44:./Src/varie.c **** void Led_Set(uint8_t stato){
 152              		.loc 1 44 0
 153              		.cfi_startproc
 154              		@ args = 0, pretend = 0, frame = 0
 155              		@ frame_needed = 0, uses_anonymous_args = 0
 156              	.LVL3:
 157 0000 08B5     		push	{r3, lr}
 158              	.LCFI6:
 159              		.cfi_def_cfa_offset 8
 160              		.cfi_offset 3, -8
 161              		.cfi_offset 14, -4
  45:./Src/varie.c ****   HAL_GPIO_WritePin(LED_GPIO_Port, LED_Pin, (GPIO_PinState)stato);
 162              		.loc 1 45 0
 163 0002 0246     		mov	r2, r0
 164 0004 0421     		movs	r1, #4
 165 0006 0248     		ldr	r0, .L11
 166              	.LVL4:
 167 0008 FFF7FEFF 		bl	HAL_GPIO_WritePin
 168              	.LVL5:
 169 000c 08BD     		pop	{r3, pc}
 170              	.L12:
 171 000e 00BF     		.align	2
 172              	.L11:
 173 0010 000C0140 		.word	1073810432
 174              		.cfi_endproc
 175              	.LFE67:
 177              		.section	.text.Power_Set,"ax",%progbits
 178              		.align	2
 179              		.global	Power_Set
 180              		.thumb
 181              		.thumb_func
 183              	Power_Set:
 184              	.LFB68:
  46:./Src/varie.c **** }
  47:./Src/varie.c **** void Power_Set(uint8_t stato){
 185              		.loc 1 47 0
 186              		.cfi_startproc
 187              		@ args = 0, pretend = 0, frame = 0
 188              		@ frame_needed = 0, uses_anonymous_args = 0
ARM GAS  /tmp/ccoTvhMz.s 			page 5


 189              	.LVL6:
 190 0000 08B5     		push	{r3, lr}
 191              	.LCFI7:
 192              		.cfi_def_cfa_offset 8
 193              		.cfi_offset 3, -8
 194              		.cfi_offset 14, -4
  48:./Src/varie.c ****   HAL_GPIO_WritePin(Power_GPIO_PORT, Power_Pin, (GPIO_PinState)stato);
 195              		.loc 1 48 0
 196 0002 0246     		mov	r2, r0
 197 0004 2021     		movs	r1, #32
 198 0006 0248     		ldr	r0, .L15
 199              	.LVL7:
 200 0008 FFF7FEFF 		bl	HAL_GPIO_WritePin
 201              	.LVL8:
 202 000c 08BD     		pop	{r3, pc}
 203              	.L16:
 204 000e 00BF     		.align	2
 205              	.L15:
 206 0010 00080140 		.word	1073809408
 207              		.cfi_endproc
 208              	.LFE68:
 210              		.section	.text.Buzzer_Set,"ax",%progbits
 211              		.align	2
 212              		.global	Buzzer_Set
 213              		.thumb
 214              		.thumb_func
 216              	Buzzer_Set:
 217              	.LFB69:
  49:./Src/varie.c **** }
  50:./Src/varie.c **** void Buzzer_Set(uint8_t stato){
 218              		.loc 1 50 0
 219              		.cfi_startproc
 220              		@ args = 0, pretend = 0, frame = 0
 221              		@ frame_needed = 0, uses_anonymous_args = 0
 222              	.LVL9:
 223 0000 08B5     		push	{r3, lr}
 224              	.LCFI8:
 225              		.cfi_def_cfa_offset 8
 226              		.cfi_offset 3, -8
 227              		.cfi_offset 14, -4
  51:./Src/varie.c ****   HAL_GPIO_WritePin(BUZZER_GPIO_Port, BUZZER_Pin, (GPIO_PinState)stato);
 228              		.loc 1 51 0
 229 0002 0246     		mov	r2, r0
 230 0004 1021     		movs	r1, #16
 231 0006 0248     		ldr	r0, .L19
 232              	.LVL10:
 233 0008 FFF7FEFF 		bl	HAL_GPIO_WritePin
 234              	.LVL11:
 235 000c 08BD     		pop	{r3, pc}
 236              	.L20:
 237 000e 00BF     		.align	2
 238              	.L19:
 239 0010 00080140 		.word	1073809408
 240              		.cfi_endproc
 241              	.LFE69:
 243              		.section	.text.Buzzer_init,"ax",%progbits
 244              		.align	2
ARM GAS  /tmp/ccoTvhMz.s 			page 6


 245              		.global	Buzzer_init
 246              		.thumb
 247              		.thumb_func
 249              	Buzzer_init:
 250              	.LFB64:
   7:./Src/varie.c ****   GPIO_InitTypeDef GPIO_InitStruct;
 251              		.loc 1 7 0
 252              		.cfi_startproc
 253              		@ args = 0, pretend = 0, frame = 24
 254              		@ frame_needed = 0, uses_anonymous_args = 0
 255 0000 30B5     		push	{r4, r5, lr}
 256              	.LCFI9:
 257              		.cfi_def_cfa_offset 12
 258              		.cfi_offset 4, -12
 259              		.cfi_offset 5, -8
 260              		.cfi_offset 14, -4
 261 0002 87B0     		sub	sp, sp, #28
 262              	.LCFI10:
 263              		.cfi_def_cfa_offset 40
 264              	.LBB4:
   9:./Src/varie.c ****   /*Configure GPIO pin Output Level */
 265              		.loc 1 9 0
 266 0004 124B     		ldr	r3, .L23
 267 0006 9A69     		ldr	r2, [r3, #24]
 268 0008 42F00402 		orr	r2, r2, #4
 269 000c 9A61     		str	r2, [r3, #24]
 270 000e 9B69     		ldr	r3, [r3, #24]
 271 0010 03F00403 		and	r3, r3, #4
 272 0014 0193     		str	r3, [sp, #4]
 273 0016 019B     		ldr	r3, [sp, #4]
 274              	.LBE4:
  11:./Src/varie.c ****   /*Configure GPIO pin : BUZZER_Pin */
 275              		.loc 1 11 0
 276 0018 0E4D     		ldr	r5, .L23+4
 277 001a 0022     		movs	r2, #0
 278 001c 1021     		movs	r1, #16
 279 001e 2846     		mov	r0, r5
 280 0020 FFF7FEFF 		bl	HAL_GPIO_WritePin
 281              	.LVL12:
  13:./Src/varie.c ****   GPIO_InitStruct.Mode = GPIO_MODE_OUTPUT_PP;
 282              		.loc 1 13 0
 283 0024 1023     		movs	r3, #16
 284 0026 0293     		str	r3, [sp, #8]
  14:./Src/varie.c ****   GPIO_InitStruct.Speed = GPIO_SPEED_FREQ_LOW;
 285              		.loc 1 14 0
 286 0028 0124     		movs	r4, #1
 287 002a 0394     		str	r4, [sp, #12]
  15:./Src/varie.c ****   HAL_GPIO_Init(BUZZER_GPIO_Port, &GPIO_InitStruct);
 288              		.loc 1 15 0
 289 002c 0223     		movs	r3, #2
 290 002e 0593     		str	r3, [sp, #20]
  16:./Src/varie.c ****   Buzzer_Set(0);
 291              		.loc 1 16 0
 292 0030 02A9     		add	r1, sp, #8
 293 0032 2846     		mov	r0, r5
 294 0034 FFF7FEFF 		bl	HAL_GPIO_Init
 295              	.LVL13:
ARM GAS  /tmp/ccoTvhMz.s 			page 7


  17:./Src/varie.c ****   Buzzer_Set(1);
 296              		.loc 1 17 0
 297 0038 0020     		movs	r0, #0
 298 003a FFF7FEFF 		bl	Buzzer_Set
 299              	.LVL14:
  18:./Src/varie.c ****   Buzzer_Set(0);
 300              		.loc 1 18 0
 301 003e 2046     		mov	r0, r4
 302 0040 FFF7FEFF 		bl	Buzzer_Set
 303              	.LVL15:
  19:./Src/varie.c **** }
 304              		.loc 1 19 0
 305 0044 0020     		movs	r0, #0
 306 0046 FFF7FEFF 		bl	Buzzer_Set
 307              	.LVL16:
  20:./Src/varie.c **** 
 308              		.loc 1 20 0
 309 004a 07B0     		add	sp, sp, #28
 310              	.LCFI11:
 311              		.cfi_def_cfa_offset 12
 312              		@ sp needed
 313 004c 30BD     		pop	{r4, r5, pc}
 314              	.L24:
 315 004e 00BF     		.align	2
 316              	.L23:
 317 0050 00100240 		.word	1073876992
 318 0054 00080140 		.word	1073809408
 319              		.cfi_endproc
 320              	.LFE64:
 322              		.section	.text.Buzzer_OneBeep,"ax",%progbits
 323              		.align	2
 324              		.global	Buzzer_OneBeep
 325              		.thumb
 326              		.thumb_func
 328              	Buzzer_OneBeep:
 329              	.LFB70:
  52:./Src/varie.c **** }
  53:./Src/varie.c **** void Buzzer_OneBeep(void){
 330              		.loc 1 53 0
 331              		.cfi_startproc
 332              		@ args = 0, pretend = 0, frame = 0
 333              		@ frame_needed = 0, uses_anonymous_args = 0
 334 0000 10B5     		push	{r4, lr}
 335              	.LCFI12:
 336              		.cfi_def_cfa_offset 8
 337              		.cfi_offset 4, -8
 338              		.cfi_offset 14, -4
 339              	.LVL17:
 340              	.LBB5:
  54:./Src/varie.c ****   for(int i=0;i<200;i++){
 341              		.loc 1 54 0
 342 0002 0024     		movs	r4, #0
 343 0004 0FE0     		b	.L26
 344              	.LVL18:
 345              	.L27:
  55:./Src/varie.c ****     Buzzer_Set(1);
 346              		.loc 1 55 0 discriminator 3
ARM GAS  /tmp/ccoTvhMz.s 			page 8


 347 0006 0120     		movs	r0, #1
 348 0008 FFF7FEFF 		bl	Buzzer_Set
 349              	.LVL19:
  56:./Src/varie.c ****     Delay_us(160);
 350              		.loc 1 56 0 discriminator 3
 351 000c A020     		movs	r0, #160
 352 000e FFF7FEFF 		bl	Delay_us
 353              	.LVL20:
  57:./Src/varie.c ****     Buzzer_Set(0);
 354              		.loc 1 57 0 discriminator 3
 355 0012 0020     		movs	r0, #0
 356 0014 FFF7FEFF 		bl	Buzzer_Set
 357              	.LVL21:
  58:./Src/varie.c ****     Delay_us(160);
 358              		.loc 1 58 0 discriminator 3
 359 0018 A020     		movs	r0, #160
 360 001a FFF7FEFF 		bl	Delay_us
 361              	.LVL22:
  59:./Src/varie.c ****     HAL_IWDG_Refresh(&hiwdg);   //819mS
 362              		.loc 1 59 0 discriminator 3
 363 001e 0548     		ldr	r0, .L29
 364 0020 FFF7FEFF 		bl	HAL_IWDG_Refresh
 365              	.LVL23:
  54:./Src/varie.c ****     Buzzer_Set(1);
 366              		.loc 1 54 0 discriminator 3
 367 0024 0134     		adds	r4, r4, #1
 368              	.LVL24:
 369              	.L26:
  54:./Src/varie.c ****     Buzzer_Set(1);
 370              		.loc 1 54 0 is_stmt 0 discriminator 1
 371 0026 C72C     		cmp	r4, #199
 372 0028 EDDD     		ble	.L27
 373              	.LBE5:
  60:./Src/varie.c ****   }
  61:./Src/varie.c ****   Buzzer_Set(0);
 374              		.loc 1 61 0 is_stmt 1
 375 002a 0020     		movs	r0, #0
 376 002c FFF7FEFF 		bl	Buzzer_Set
 377              	.LVL25:
 378 0030 10BD     		pop	{r4, pc}
 379              	.LVL26:
 380              	.L30:
 381 0032 00BF     		.align	2
 382              	.L29:
 383 0034 00000000 		.word	hiwdg
 384              		.cfi_endproc
 385              	.LFE70:
 387              		.section	.text.Buzzer_TwoBeep,"ax",%progbits
 388              		.align	2
 389              		.global	Buzzer_TwoBeep
 390              		.thumb
 391              		.thumb_func
 393              	Buzzer_TwoBeep:
 394              	.LFB71:
  62:./Src/varie.c **** }
  63:./Src/varie.c **** void Buzzer_TwoBeep(void){
 395              		.loc 1 63 0
ARM GAS  /tmp/ccoTvhMz.s 			page 9


 396              		.cfi_startproc
 397              		@ args = 0, pretend = 0, frame = 0
 398              		@ frame_needed = 0, uses_anonymous_args = 0
 399 0000 38B5     		push	{r3, r4, r5, lr}
 400              	.LCFI13:
 401              		.cfi_def_cfa_offset 16
 402              		.cfi_offset 3, -16
 403              		.cfi_offset 4, -12
 404              		.cfi_offset 5, -8
 405              		.cfi_offset 14, -4
 406              	.LVL27:
 407              	.LBB6:
  64:./Src/varie.c ****   for(int j=0;j<2;j++){
 408              		.loc 1 64 0
 409 0002 0025     		movs	r5, #0
 410 0004 1AE0     		b	.L32
 411              	.LVL28:
 412              	.L33:
 413              	.LBB7:
  65:./Src/varie.c ****     for(int i=0;i<150;i++){
  66:./Src/varie.c ****       Buzzer_Set(1);
 414              		.loc 1 66 0 discriminator 3
 415 0006 0120     		movs	r0, #1
 416 0008 FFF7FEFF 		bl	Buzzer_Set
 417              	.LVL29:
  67:./Src/varie.c ****       Delay_us(160);
 418              		.loc 1 67 0 discriminator 3
 419 000c A020     		movs	r0, #160
 420 000e FFF7FEFF 		bl	Delay_us
 421              	.LVL30:
  68:./Src/varie.c ****       Buzzer_Set(0);
 422              		.loc 1 68 0 discriminator 3
 423 0012 0020     		movs	r0, #0
 424 0014 FFF7FEFF 		bl	Buzzer_Set
 425              	.LVL31:
  69:./Src/varie.c ****       Delay_us(160);
 426              		.loc 1 69 0 discriminator 3
 427 0018 A020     		movs	r0, #160
 428 001a FFF7FEFF 		bl	Delay_us
 429              	.LVL32:
  70:./Src/varie.c ****       HAL_IWDG_Refresh(&hiwdg);   //819mS
 430              		.loc 1 70 0 discriminator 3
 431 001e 0A48     		ldr	r0, .L37
 432 0020 FFF7FEFF 		bl	HAL_IWDG_Refresh
 433              	.LVL33:
  65:./Src/varie.c ****       Buzzer_Set(1);
 434              		.loc 1 65 0 discriminator 3
 435 0024 0134     		adds	r4, r4, #1
 436              	.LVL34:
 437 0026 00E0     		b	.L34
 438              	.LVL35:
 439              	.L35:
 440              	.LBE7:
 441 0028 0024     		movs	r4, #0
 442              	.L34:
 443              	.LVL36:
 444              	.LBB8:
ARM GAS  /tmp/ccoTvhMz.s 			page 10


  65:./Src/varie.c ****       Buzzer_Set(1);
 445              		.loc 1 65 0 is_stmt 0 discriminator 1
 446 002a 952C     		cmp	r4, #149
 447 002c EBDD     		ble	.L33
 448              	.LBE8:
  71:./Src/varie.c ****     }
  72:./Src/varie.c ****     Buzzer_Set(0);
 449              		.loc 1 72 0 is_stmt 1 discriminator 2
 450 002e 0020     		movs	r0, #0
 451 0030 FFF7FEFF 		bl	Buzzer_Set
 452              	.LVL37:
  73:./Src/varie.c ****     HAL_Delay(200);
 453              		.loc 1 73 0 discriminator 2
 454 0034 C820     		movs	r0, #200
 455 0036 FFF7FEFF 		bl	HAL_Delay
 456              	.LVL38:
  64:./Src/varie.c ****     for(int i=0;i<150;i++){
 457              		.loc 1 64 0 discriminator 2
 458 003a 0135     		adds	r5, r5, #1
 459              	.LVL39:
 460              	.L32:
  64:./Src/varie.c ****     for(int i=0;i<150;i++){
 461              		.loc 1 64 0 is_stmt 0 discriminator 1
 462 003c 012D     		cmp	r5, #1
 463 003e F3DD     		ble	.L35
 464              	.LBE6:
  74:./Src/varie.c ****   }
  75:./Src/varie.c ****   Buzzer_Set(0);
 465              		.loc 1 75 0 is_stmt 1
 466 0040 0020     		movs	r0, #0
 467 0042 FFF7FEFF 		bl	Buzzer_Set
 468              	.LVL40:
 469 0046 38BD     		pop	{r3, r4, r5, pc}
 470              	.LVL41:
 471              	.L38:
 472              		.align	2
 473              	.L37:
 474 0048 00000000 		.word	hiwdg
 475              		.cfi_endproc
 476              	.LFE71:
 478              		.section	.text.Buzzer_OneShortBeep,"ax",%progbits
 479              		.align	2
 480              		.global	Buzzer_OneShortBeep
 481              		.thumb
 482              		.thumb_func
 484              	Buzzer_OneShortBeep:
 485              	.LFB72:
  76:./Src/varie.c **** }
  77:./Src/varie.c **** void Buzzer_OneShortBeep(void){
 486              		.loc 1 77 0
 487              		.cfi_startproc
 488              		@ args = 0, pretend = 0, frame = 0
 489              		@ frame_needed = 0, uses_anonymous_args = 0
 490 0000 10B5     		push	{r4, lr}
 491              	.LCFI14:
 492              		.cfi_def_cfa_offset 8
 493              		.cfi_offset 4, -8
ARM GAS  /tmp/ccoTvhMz.s 			page 11


 494              		.cfi_offset 14, -4
 495              	.LVL42:
 496              	.LBB9:
  78:./Src/varie.c ****   for(int i=0;i<80;i++){
 497              		.loc 1 78 0
 498 0002 0024     		movs	r4, #0
 499 0004 0FE0     		b	.L40
 500              	.LVL43:
 501              	.L41:
  79:./Src/varie.c ****     Buzzer_Set(1);
 502              		.loc 1 79 0 discriminator 3
 503 0006 0120     		movs	r0, #1
 504 0008 FFF7FEFF 		bl	Buzzer_Set
 505              	.LVL44:
  80:./Src/varie.c ****     Delay_us(160);
 506              		.loc 1 80 0 discriminator 3
 507 000c A020     		movs	r0, #160
 508 000e FFF7FEFF 		bl	Delay_us
 509              	.LVL45:
  81:./Src/varie.c ****     Buzzer_Set(0);
 510              		.loc 1 81 0 discriminator 3
 511 0012 0020     		movs	r0, #0
 512 0014 FFF7FEFF 		bl	Buzzer_Set
 513              	.LVL46:
  82:./Src/varie.c ****     Delay_us(160);
 514              		.loc 1 82 0 discriminator 3
 515 0018 A020     		movs	r0, #160
 516 001a FFF7FEFF 		bl	Delay_us
 517              	.LVL47:
  83:./Src/varie.c ****     HAL_IWDG_Refresh(&hiwdg);   //819mS
 518              		.loc 1 83 0 discriminator 3
 519 001e 0548     		ldr	r0, .L43
 520 0020 FFF7FEFF 		bl	HAL_IWDG_Refresh
 521              	.LVL48:
  78:./Src/varie.c ****     Buzzer_Set(1);
 522              		.loc 1 78 0 discriminator 3
 523 0024 0134     		adds	r4, r4, #1
 524              	.LVL49:
 525              	.L40:
  78:./Src/varie.c ****     Buzzer_Set(1);
 526              		.loc 1 78 0 is_stmt 0 discriminator 1
 527 0026 4F2C     		cmp	r4, #79
 528 0028 EDDD     		ble	.L41
 529              	.LBE9:
  84:./Src/varie.c ****   }
  85:./Src/varie.c ****   Buzzer_Set(0);
 530              		.loc 1 85 0 is_stmt 1
 531 002a 0020     		movs	r0, #0
 532 002c FFF7FEFF 		bl	Buzzer_Set
 533              	.LVL50:
 534 0030 10BD     		pop	{r4, pc}
 535              	.LVL51:
 536              	.L44:
 537 0032 00BF     		.align	2
 538              	.L43:
 539 0034 00000000 		.word	hiwdg
 540              		.cfi_endproc
ARM GAS  /tmp/ccoTvhMz.s 			page 12


 541              	.LFE72:
 543              		.section	.text.Buzzer_OneLongBeep,"ax",%progbits
 544              		.align	2
 545              		.global	Buzzer_OneLongBeep
 546              		.thumb
 547              		.thumb_func
 549              	Buzzer_OneLongBeep:
 550              	.LFB73:
  86:./Src/varie.c **** }
  87:./Src/varie.c **** void Buzzer_OneLongBeep(void){
 551              		.loc 1 87 0
 552              		.cfi_startproc
 553              		@ args = 0, pretend = 0, frame = 0
 554              		@ frame_needed = 0, uses_anonymous_args = 0
 555 0000 10B5     		push	{r4, lr}
 556              	.LCFI15:
 557              		.cfi_def_cfa_offset 8
 558              		.cfi_offset 4, -8
 559              		.cfi_offset 14, -4
 560              	.LVL52:
 561              	.LBB10:
  88:./Src/varie.c ****   for(int i=0;i<600;i++){
 562              		.loc 1 88 0
 563 0002 0024     		movs	r4, #0
 564 0004 0FE0     		b	.L46
 565              	.LVL53:
 566              	.L47:
  89:./Src/varie.c ****     Buzzer_Set(1);
 567              		.loc 1 89 0 discriminator 3
 568 0006 0120     		movs	r0, #1
 569 0008 FFF7FEFF 		bl	Buzzer_Set
 570              	.LVL54:
  90:./Src/varie.c ****     Delay_us(160);
 571              		.loc 1 90 0 discriminator 3
 572 000c A020     		movs	r0, #160
 573 000e FFF7FEFF 		bl	Delay_us
 574              	.LVL55:
  91:./Src/varie.c ****     Buzzer_Set(0);
 575              		.loc 1 91 0 discriminator 3
 576 0012 0020     		movs	r0, #0
 577 0014 FFF7FEFF 		bl	Buzzer_Set
 578              	.LVL56:
  92:./Src/varie.c ****     Delay_us(160);
 579              		.loc 1 92 0 discriminator 3
 580 0018 A020     		movs	r0, #160
 581 001a FFF7FEFF 		bl	Delay_us
 582              	.LVL57:
  93:./Src/varie.c ****     HAL_IWDG_Refresh(&hiwdg);   //819mS
 583              		.loc 1 93 0 discriminator 3
 584 001e 0548     		ldr	r0, .L49
 585 0020 FFF7FEFF 		bl	HAL_IWDG_Refresh
 586              	.LVL58:
  88:./Src/varie.c ****     Buzzer_Set(1);
 587              		.loc 1 88 0 discriminator 3
 588 0024 0134     		adds	r4, r4, #1
 589              	.LVL59:
 590              	.L46:
ARM GAS  /tmp/ccoTvhMz.s 			page 13


  88:./Src/varie.c ****     Buzzer_Set(1);
 591              		.loc 1 88 0 is_stmt 0 discriminator 1
 592 0026 B4F5167F 		cmp	r4, #600
 593 002a ECDB     		blt	.L47
 594              	.LBE10:
  94:./Src/varie.c ****   }
  95:./Src/varie.c ****   Buzzer_Set(0);
 595              		.loc 1 95 0 is_stmt 1
 596 002c 0020     		movs	r0, #0
 597 002e FFF7FEFF 		bl	Buzzer_Set
 598              	.LVL60:
 599 0032 10BD     		pop	{r4, pc}
 600              	.LVL61:
 601              	.L50:
 602              		.align	2
 603              	.L49:
 604 0034 00000000 		.word	hiwdg
 605              		.cfi_endproc
 606              	.LFE73:
 608              		.section	.text.IS_Charge,"ax",%progbits
 609              		.align	2
 610              		.global	IS_Charge
 611              		.thumb
 612              		.thumb_func
 614              	IS_Charge:
 615              	.LFB74:
  96:./Src/varie.c **** }
  97:./Src/varie.c **** 
  98:./Src/varie.c **** uint8_t IS_Charge(void){
 616              		.loc 1 98 0
 617              		.cfi_startproc
 618              		@ args = 0, pretend = 0, frame = 0
 619              		@ frame_needed = 0, uses_anonymous_args = 0
 620 0000 08B5     		push	{r3, lr}
 621              	.LCFI16:
 622              		.cfi_def_cfa_offset 8
 623              		.cfi_offset 3, -8
 624              		.cfi_offset 14, -4
  99:./Src/varie.c ****   return (uint8_t)HAL_GPIO_ReadPin(IS_CHARGE_GPIO_Port, IS_CHARGE_Pin);
 625              		.loc 1 99 0
 626 0002 4FF48051 		mov	r1, #4096
 627 0006 0248     		ldr	r0, .L53
 628 0008 FFF7FEFF 		bl	HAL_GPIO_ReadPin
 629              	.LVL62:
 100:./Src/varie.c **** }
 630              		.loc 1 100 0
 631 000c 08BD     		pop	{r3, pc}
 632              	.L54:
 633 000e 00BF     		.align	2
 634              	.L53:
 635 0010 00080140 		.word	1073809408
 636              		.cfi_endproc
 637              	.LFE74:
 639              		.section	.text.IS_Button,"ax",%progbits
 640              		.align	2
 641              		.global	IS_Button
 642              		.thumb
ARM GAS  /tmp/ccoTvhMz.s 			page 14


 643              		.thumb_func
 645              	IS_Button:
 646              	.LFB75:
 101:./Src/varie.c **** 
 102:./Src/varie.c **** uint8_t IS_Button(void){
 647              		.loc 1 102 0
 648              		.cfi_startproc
 649              		@ args = 0, pretend = 0, frame = 0
 650              		@ frame_needed = 0, uses_anonymous_args = 0
 651 0000 08B5     		push	{r3, lr}
 652              	.LCFI17:
 653              		.cfi_def_cfa_offset 8
 654              		.cfi_offset 3, -8
 655              		.cfi_offset 14, -4
 103:./Src/varie.c ****   return (uint8_t)HAL_GPIO_ReadPin(Button_GPIO_Port, Button_Pin);
 656              		.loc 1 103 0
 657 0002 0221     		movs	r1, #2
 658 0004 0148     		ldr	r0, .L57
 659 0006 FFF7FEFF 		bl	HAL_GPIO_ReadPin
 660              	.LVL63:
 104:./Src/varie.c **** }
 661              		.loc 1 104 0
 662 000a 08BD     		pop	{r3, pc}
 663              	.L58:
 664              		.align	2
 665              	.L57:
 666 000c 00080140 		.word	1073809408
 667              		.cfi_endproc
 668              	.LFE75:
 670              		.section	.text.DebugPin_init,"ax",%progbits
 671              		.align	2
 672              		.global	DebugPin_init
 673              		.thumb
 674              		.thumb_func
 676              	DebugPin_init:
 677              	.LFB76:
 105:./Src/varie.c **** //volatile uint32_t tu32;
 106:./Src/varie.c **** void DebugPin_init(void){
 678              		.loc 1 106 0
 679              		.cfi_startproc
 680              		@ args = 0, pretend = 0, frame = 24
 681              		@ frame_needed = 0, uses_anonymous_args = 0
 682 0000 10B5     		push	{r4, lr}
 683              	.LCFI18:
 684              		.cfi_def_cfa_offset 8
 685              		.cfi_offset 4, -8
 686              		.cfi_offset 14, -4
 687 0002 86B0     		sub	sp, sp, #24
 688              	.LCFI19:
 689              		.cfi_def_cfa_offset 32
 690              	.LBB11:
 107:./Src/varie.c ****   GPIO_InitTypeDef GPIO_InitStruct;
 108:./Src/varie.c ****   __HAL_RCC_GPIOC_CLK_ENABLE();
 691              		.loc 1 108 0
 692 0004 144B     		ldr	r3, .L61
 693 0006 9A69     		ldr	r2, [r3, #24]
 694 0008 42F01002 		orr	r2, r2, #16
ARM GAS  /tmp/ccoTvhMz.s 			page 15


 695 000c 9A61     		str	r2, [r3, #24]
 696 000e 9B69     		ldr	r3, [r3, #24]
 697 0010 03F01003 		and	r3, r3, #16
 698 0014 0193     		str	r3, [sp, #4]
 699 0016 019B     		ldr	r3, [sp, #4]
 700              	.LBE11:
 109:./Src/varie.c ****   /*Configure GPIO pin Output Level */
 110:./Src/varie.c ****   HAL_GPIO_WritePin(GPIOC, GPIO_PIN_4, GPIO_PIN_RESET);
 701              		.loc 1 110 0
 702 0018 104C     		ldr	r4, .L61+4
 703 001a 0022     		movs	r2, #0
 704 001c 1021     		movs	r1, #16
 705 001e 2046     		mov	r0, r4
 706 0020 FFF7FEFF 		bl	HAL_GPIO_WritePin
 707              	.LVL64:
 111:./Src/varie.c ****   HAL_GPIO_WritePin(GPIOC, GPIO_PIN_5, GPIO_PIN_RESET);
 708              		.loc 1 111 0
 709 0024 0022     		movs	r2, #0
 710 0026 2021     		movs	r1, #32
 711 0028 2046     		mov	r0, r4
 712 002a FFF7FEFF 		bl	HAL_GPIO_WritePin
 713              	.LVL65:
 112:./Src/varie.c ****   GPIO_InitStruct.Pull = GPIO_PULLDOWN;
 714              		.loc 1 112 0
 715 002e 0223     		movs	r3, #2
 716 0030 0493     		str	r3, [sp, #16]
 113:./Src/varie.c ****   GPIO_InitStruct.Pin = GPIO_PIN_4;
 717              		.loc 1 113 0
 718 0032 1023     		movs	r3, #16
 719 0034 0293     		str	r3, [sp, #8]
 114:./Src/varie.c ****   GPIO_InitStruct.Mode = GPIO_MODE_OUTPUT_PP;
 720              		.loc 1 114 0
 721 0036 0123     		movs	r3, #1
 722 0038 0393     		str	r3, [sp, #12]
 115:./Src/varie.c ****   GPIO_InitStruct.Speed = GPIO_SPEED_FREQ_HIGH;
 723              		.loc 1 115 0
 724 003a 0323     		movs	r3, #3
 725 003c 0593     		str	r3, [sp, #20]
 116:./Src/varie.c ****   HAL_GPIO_Init(GPIOC, &GPIO_InitStruct);
 726              		.loc 1 116 0
 727 003e 02A9     		add	r1, sp, #8
 728 0040 2046     		mov	r0, r4
 729 0042 FFF7FEFF 		bl	HAL_GPIO_Init
 730              	.LVL66:
 117:./Src/varie.c ****   GPIO_InitStruct.Pin = GPIO_PIN_5;
 731              		.loc 1 117 0
 732 0046 2023     		movs	r3, #32
 733 0048 0293     		str	r3, [sp, #8]
 118:./Src/varie.c ****   HAL_GPIO_Init(GPIOC, &GPIO_InitStruct);
 734              		.loc 1 118 0
 735 004a 02A9     		add	r1, sp, #8
 736 004c 2046     		mov	r0, r4
 737 004e FFF7FEFF 		bl	HAL_GPIO_Init
 738              	.LVL67:
 119:./Src/varie.c **** 
 120:./Src/varie.c **** //  tu32 = (uint32_t)GPIO_PIN_4 << 16;
 121:./Src/varie.c **** //  tu32 = (uint32_t)GPIO_PIN_5 << 16;
ARM GAS  /tmp/ccoTvhMz.s 			page 16


 122:./Src/varie.c **** 
 123:./Src/varie.c **** }
 739              		.loc 1 123 0
 740 0052 06B0     		add	sp, sp, #24
 741              	.LCFI20:
 742              		.cfi_def_cfa_offset 8
 743              		@ sp needed
 744 0054 10BD     		pop	{r4, pc}
 745              	.L62:
 746 0056 00BF     		.align	2
 747              	.L61:
 748 0058 00100240 		.word	1073876992
 749 005c 00100140 		.word	1073811456
 750              		.cfi_endproc
 751              	.LFE76:
 753              		.section	.text.Timer_init,"ax",%progbits
 754              		.align	2
 755              		.global	Timer_init
 756              		.thumb
 757              		.thumb_func
 759              	Timer_init:
 760              	.LFB77:
 124:./Src/varie.c **** 
 125:./Src/varie.c **** void Timer_init(void){
 761              		.loc 1 125 0
 762              		.cfi_startproc
 763              		@ args = 0, pretend = 0, frame = 16
 764              		@ frame_needed = 0, uses_anonymous_args = 0
 765 0000 00B5     		push	{lr}
 766              	.LCFI21:
 767              		.cfi_def_cfa_offset 4
 768              		.cfi_offset 14, -4
 769 0002 85B0     		sub	sp, sp, #20
 770              	.LCFI22:
 771              		.cfi_def_cfa_offset 24
 126:./Src/varie.c ****   GPIO_InitTypeDef GPIO_InitStruct;
 127:./Src/varie.c ****   /*Configure GPIO pin : PA3 */
 128:./Src/varie.c ****   GPIO_InitStruct.Pin = GPIO_PIN_3;
 772              		.loc 1 128 0
 773 0004 0823     		movs	r3, #8
 774 0006 0093     		str	r3, [sp]
 129:./Src/varie.c ****   GPIO_InitStruct.Mode = GPIO_MODE_IT_FALLING;
 775              		.loc 1 129 0
 776 0008 0A4B     		ldr	r3, .L65
 777 000a 0193     		str	r3, [sp, #4]
 130:./Src/varie.c ****   GPIO_InitStruct.Speed = GPIO_SPEED_HIGH;
 778              		.loc 1 130 0
 779 000c 0323     		movs	r3, #3
 780 000e 0393     		str	r3, [sp, #12]
 131:./Src/varie.c ****   GPIO_InitStruct.Pull = GPIO_PULLDOWN;
 781              		.loc 1 131 0
 782 0010 0223     		movs	r3, #2
 783 0012 0293     		str	r3, [sp, #8]
 132:./Src/varie.c ****   HAL_GPIO_Init(GPIOA, &GPIO_InitStruct);
 784              		.loc 1 132 0
 785 0014 6946     		mov	r1, sp
 786 0016 0848     		ldr	r0, .L65+4
ARM GAS  /tmp/ccoTvhMz.s 			page 17


 787 0018 FFF7FEFF 		bl	HAL_GPIO_Init
 788              	.LVL68:
 133:./Src/varie.c **** 
 134:./Src/varie.c ****   /* EXTI interrupt init*/
 135:./Src/varie.c ****   HAL_NVIC_SetPriority(EXTI3_IRQn, 0, 0);
 789              		.loc 1 135 0
 790 001c 0022     		movs	r2, #0
 791 001e 1146     		mov	r1, r2
 792 0020 0920     		movs	r0, #9
 793 0022 FFF7FEFF 		bl	HAL_NVIC_SetPriority
 794              	.LVL69:
 136:./Src/varie.c ****   HAL_NVIC_EnableIRQ(EXTI3_IRQn);
 795              		.loc 1 136 0
 796 0026 0920     		movs	r0, #9
 797 0028 FFF7FEFF 		bl	HAL_NVIC_EnableIRQ
 798              	.LVL70:
 137:./Src/varie.c **** }
 799              		.loc 1 137 0
 800 002c 05B0     		add	sp, sp, #20
 801              	.LCFI23:
 802              		.cfi_def_cfa_offset 4
 803              		@ sp needed
 804 002e 5DF804FB 		ldr	pc, [sp], #4
 805              	.L66:
 806 0032 00BF     		.align	2
 807              	.L65:
 808 0034 00002110 		.word	270598144
 809 0038 00080140 		.word	1073809408
 810              		.cfi_endproc
 811              	.LFE77:
 813              		.section	.text.Button_init,"ax",%progbits
 814              		.align	2
 815              		.global	Button_init
 816              		.thumb
 817              		.thumb_func
 819              	Button_init:
 820              	.LFB78:
 138:./Src/varie.c **** void Button_init(void){
 821              		.loc 1 138 0
 822              		.cfi_startproc
 823              		@ args = 0, pretend = 0, frame = 24
 824              		@ frame_needed = 0, uses_anonymous_args = 0
 825 0000 30B5     		push	{r4, r5, lr}
 826              	.LCFI24:
 827              		.cfi_def_cfa_offset 12
 828              		.cfi_offset 4, -12
 829              		.cfi_offset 5, -8
 830              		.cfi_offset 14, -4
 831 0002 87B0     		sub	sp, sp, #28
 832              	.LCFI25:
 833              		.cfi_def_cfa_offset 40
 834              	.LBB12:
 139:./Src/varie.c ****   GPIO_InitTypeDef GPIO_InitStruct;
 140:./Src/varie.c ****   __HAL_RCC_GPIOA_CLK_ENABLE();
 835              		.loc 1 140 0
 836 0004 0F4B     		ldr	r3, .L69
 837 0006 9A69     		ldr	r2, [r3, #24]
ARM GAS  /tmp/ccoTvhMz.s 			page 18


 838 0008 42F00402 		orr	r2, r2, #4
 839 000c 9A61     		str	r2, [r3, #24]
 840 000e 9B69     		ldr	r3, [r3, #24]
 841 0010 03F00403 		and	r3, r3, #4
 842 0014 0193     		str	r3, [sp, #4]
 843 0016 019B     		ldr	r3, [sp, #4]
 844              	.LBE12:
 141:./Src/varie.c ****   GPIO_InitStruct.Pull = GPIO_PULLDOWN;
 845              		.loc 1 141 0
 846 0018 0224     		movs	r4, #2
 847 001a 0494     		str	r4, [sp, #16]
 142:./Src/varie.c ****   GPIO_InitStruct.Pin = Power_Pin;
 848              		.loc 1 142 0
 849 001c 2023     		movs	r3, #32
 850 001e 0293     		str	r3, [sp, #8]
 143:./Src/varie.c ****   GPIO_InitStruct.Mode = GPIO_MODE_OUTPUT_PP;
 851              		.loc 1 143 0
 852 0020 0123     		movs	r3, #1
 853 0022 0393     		str	r3, [sp, #12]
 144:./Src/varie.c ****   GPIO_InitStruct.Speed = GPIO_SPEED_FREQ_LOW;
 854              		.loc 1 144 0
 855 0024 0594     		str	r4, [sp, #20]
 145:./Src/varie.c ****   HAL_GPIO_Init(Power_GPIO_PORT, &GPIO_InitStruct);
 856              		.loc 1 145 0
 857 0026 084D     		ldr	r5, .L69+4
 858 0028 02A9     		add	r1, sp, #8
 859 002a 2846     		mov	r0, r5
 860 002c FFF7FEFF 		bl	HAL_GPIO_Init
 861              	.LVL71:
 146:./Src/varie.c **** 
 147:./Src/varie.c ****   GPIO_InitStruct.Pin = Button_Pin;
 862              		.loc 1 147 0
 863 0030 0294     		str	r4, [sp, #8]
 148:./Src/varie.c ****   GPIO_InitStruct.Mode = GPIO_MODE_INPUT;
 864              		.loc 1 148 0
 865 0032 0023     		movs	r3, #0
 866 0034 0393     		str	r3, [sp, #12]
 149:./Src/varie.c ****   GPIO_InitStruct.Pull = GPIO_NOPULL;
 867              		.loc 1 149 0
 868 0036 0493     		str	r3, [sp, #16]
 150:./Src/varie.c ****   HAL_GPIO_Init(Button_GPIO_Port, &GPIO_InitStruct);
 869              		.loc 1 150 0
 870 0038 02A9     		add	r1, sp, #8
 871 003a 2846     		mov	r0, r5
 872 003c FFF7FEFF 		bl	HAL_GPIO_Init
 873              	.LVL72:
 151:./Src/varie.c **** //  tu32 = (uint32_t)GPIO_PIN_4 << 16;
 152:./Src/varie.c **** //  tu32 = (uint32_t)GPIO_PIN_5 << 16;
 153:./Src/varie.c **** 
 154:./Src/varie.c **** }
 874              		.loc 1 154 0
 875 0040 07B0     		add	sp, sp, #28
 876              	.LCFI26:
 877              		.cfi_def_cfa_offset 12
 878              		@ sp needed
 879 0042 30BD     		pop	{r4, r5, pc}
 880              	.L70:
ARM GAS  /tmp/ccoTvhMz.s 			page 19


 881              		.align	2
 882              	.L69:
 883 0044 00100240 		.word	1073876992
 884 0048 00080140 		.word	1073809408
 885              		.cfi_endproc
 886              	.LFE78:
 888              		.section	.text.DebugPin4_ON,"ax",%progbits
 889              		.align	2
 890              		.global	DebugPin4_ON
 891              		.thumb
 892              		.thumb_func
 894              	DebugPin4_ON:
 895              	.LFB79:
 155:./Src/varie.c **** 
 156:./Src/varie.c **** void DebugPin4_ON(void){
 896              		.loc 1 156 0
 897              		.cfi_startproc
 898              		@ args = 0, pretend = 0, frame = 0
 899              		@ frame_needed = 0, uses_anonymous_args = 0
 900              		@ link register save eliminated.
 157:./Src/varie.c ****   GPIOC->BSRR = GPIO_PIN_4;
 901              		.loc 1 157 0
 902 0000 1022     		movs	r2, #16
 903 0002 014B     		ldr	r3, .L72
 904 0004 1A61     		str	r2, [r3, #16]
 905 0006 7047     		bx	lr
 906              	.L73:
 907              		.align	2
 908              	.L72:
 909 0008 00100140 		.word	1073811456
 910              		.cfi_endproc
 911              	.LFE79:
 913              		.section	.text.DebugPin4_OFF,"ax",%progbits
 914              		.align	2
 915              		.global	DebugPin4_OFF
 916              		.thumb
 917              		.thumb_func
 919              	DebugPin4_OFF:
 920              	.LFB80:
 158:./Src/varie.c **** }
 159:./Src/varie.c **** void DebugPin4_OFF(void){
 921              		.loc 1 159 0
 922              		.cfi_startproc
 923              		@ args = 0, pretend = 0, frame = 0
 924              		@ frame_needed = 0, uses_anonymous_args = 0
 925              		@ link register save eliminated.
 160:./Src/varie.c ****   GPIOC->BSRR = 0x00100000;
 926              		.loc 1 160 0
 927 0000 4FF48012 		mov	r2, #1048576
 928 0004 014B     		ldr	r3, .L75
 929 0006 1A61     		str	r2, [r3, #16]
 930 0008 7047     		bx	lr
 931              	.L76:
 932 000a 00BF     		.align	2
 933              	.L75:
 934 000c 00100140 		.word	1073811456
 935              		.cfi_endproc
ARM GAS  /tmp/ccoTvhMz.s 			page 20


 936              	.LFE80:
 938              		.section	.text.DebugPin5_ON,"ax",%progbits
 939              		.align	2
 940              		.global	DebugPin5_ON
 941              		.thumb
 942              		.thumb_func
 944              	DebugPin5_ON:
 945              	.LFB81:
 161:./Src/varie.c **** }
 162:./Src/varie.c **** void DebugPin5_ON(void){
 946              		.loc 1 162 0
 947              		.cfi_startproc
 948              		@ args = 0, pretend = 0, frame = 0
 949              		@ frame_needed = 0, uses_anonymous_args = 0
 950              		@ link register save eliminated.
 163:./Src/varie.c ****   GPIOC->BSRR = GPIO_PIN_5;
 951              		.loc 1 163 0
 952 0000 2022     		movs	r2, #32
 953 0002 014B     		ldr	r3, .L78
 954 0004 1A61     		str	r2, [r3, #16]
 955 0006 7047     		bx	lr
 956              	.L79:
 957              		.align	2
 958              	.L78:
 959 0008 00100140 		.word	1073811456
 960              		.cfi_endproc
 961              	.LFE81:
 963              		.section	.text.DebugPin5_OFF,"ax",%progbits
 964              		.align	2
 965              		.global	DebugPin5_OFF
 966              		.thumb
 967              		.thumb_func
 969              	DebugPin5_OFF:
 970              	.LFB82:
 164:./Src/varie.c **** }
 165:./Src/varie.c **** void DebugPin5_OFF(void){
 971              		.loc 1 165 0
 972              		.cfi_startproc
 973              		@ args = 0, pretend = 0, frame = 0
 974              		@ frame_needed = 0, uses_anonymous_args = 0
 975              		@ link register save eliminated.
 166:./Src/varie.c ****   GPIOC->BSRR = 0x00200000;
 976              		.loc 1 166 0
 977 0000 4FF40012 		mov	r2, #2097152
 978 0004 014B     		ldr	r3, .L81
 979 0006 1A61     		str	r2, [r3, #16]
 980 0008 7047     		bx	lr
 981              	.L82:
 982 000a 00BF     		.align	2
 983              	.L81:
 984 000c 00100140 		.word	1073811456
 985              		.cfi_endproc
 986              	.LFE82:
 988              		.text
 989              	.Letext0:
 990              		.file 2 "/home/niklas/gcc-arm-none-eabi-5_4-2016q3/arm-none-eabi/include/machine/_default_types.h"
 991              		.file 3 "/home/niklas/gcc-arm-none-eabi-5_4-2016q3/arm-none-eabi/include/sys/_stdint.h"
ARM GAS  /tmp/ccoTvhMz.s 			page 21


 992              		.file 4 "./Drivers/CMSIS/Device/ST/STM32F1xx/Include/stm32f103xe.h"
 993              		.file 5 "./Drivers/STM32F1xx_HAL_Driver/Inc/stm32f1xx_hal_def.h"
 994              		.file 6 "./Drivers/STM32F1xx_HAL_Driver/Inc/stm32f1xx_hal_gpio.h"
 995              		.file 7 "./Drivers/STM32F1xx_HAL_Driver/Inc/stm32f1xx_hal_iwdg.h"
 996              		.file 8 "./Drivers/CMSIS/Include/core_cm3.h"
 997              		.file 9 "./Inc/delay.h"
 998              		.file 10 "./Drivers/STM32F1xx_HAL_Driver/Inc/stm32f1xx_hal.h"
 999              		.file 11 "./Drivers/STM32F1xx_HAL_Driver/Inc/stm32f1xx_hal_cortex.h"
ARM GAS  /tmp/ccoTvhMz.s 			page 22


DEFINED SYMBOLS
                            *ABS*:00000000 varie.c
     /tmp/ccoTvhMz.s:20     .text.Led_init:00000000 $t
     /tmp/ccoTvhMz.s:25     .text.Led_init:00000000 Led_init
     /tmp/ccoTvhMz.s:81     .text.Led_init:0000003c $d
     /tmp/ccoTvhMz.s:87     .text.IS_Charge_init:00000000 $t
     /tmp/ccoTvhMz.s:92     .text.IS_Charge_init:00000000 IS_Charge_init
     /tmp/ccoTvhMz.s:139    .text.IS_Charge_init:00000034 $d
     /tmp/ccoTvhMz.s:145    .text.Led_Set:00000000 $t
     /tmp/ccoTvhMz.s:150    .text.Led_Set:00000000 Led_Set
     /tmp/ccoTvhMz.s:173    .text.Led_Set:00000010 $d
     /tmp/ccoTvhMz.s:178    .text.Power_Set:00000000 $t
     /tmp/ccoTvhMz.s:183    .text.Power_Set:00000000 Power_Set
     /tmp/ccoTvhMz.s:206    .text.Power_Set:00000010 $d
     /tmp/ccoTvhMz.s:211    .text.Buzzer_Set:00000000 $t
     /tmp/ccoTvhMz.s:216    .text.Buzzer_Set:00000000 Buzzer_Set
     /tmp/ccoTvhMz.s:239    .text.Buzzer_Set:00000010 $d
     /tmp/ccoTvhMz.s:244    .text.Buzzer_init:00000000 $t
     /tmp/ccoTvhMz.s:249    .text.Buzzer_init:00000000 Buzzer_init
     /tmp/ccoTvhMz.s:317    .text.Buzzer_init:00000050 $d
     /tmp/ccoTvhMz.s:323    .text.Buzzer_OneBeep:00000000 $t
     /tmp/ccoTvhMz.s:328    .text.Buzzer_OneBeep:00000000 Buzzer_OneBeep
     /tmp/ccoTvhMz.s:383    .text.Buzzer_OneBeep:00000034 $d
     /tmp/ccoTvhMz.s:388    .text.Buzzer_TwoBeep:00000000 $t
     /tmp/ccoTvhMz.s:393    .text.Buzzer_TwoBeep:00000000 Buzzer_TwoBeep
     /tmp/ccoTvhMz.s:474    .text.Buzzer_TwoBeep:00000048 $d
     /tmp/ccoTvhMz.s:479    .text.Buzzer_OneShortBeep:00000000 $t
     /tmp/ccoTvhMz.s:484    .text.Buzzer_OneShortBeep:00000000 Buzzer_OneShortBeep
     /tmp/ccoTvhMz.s:539    .text.Buzzer_OneShortBeep:00000034 $d
     /tmp/ccoTvhMz.s:544    .text.Buzzer_OneLongBeep:00000000 $t
     /tmp/ccoTvhMz.s:549    .text.Buzzer_OneLongBeep:00000000 Buzzer_OneLongBeep
     /tmp/ccoTvhMz.s:604    .text.Buzzer_OneLongBeep:00000034 $d
     /tmp/ccoTvhMz.s:609    .text.IS_Charge:00000000 $t
     /tmp/ccoTvhMz.s:614    .text.IS_Charge:00000000 IS_Charge
     /tmp/ccoTvhMz.s:635    .text.IS_Charge:00000010 $d
     /tmp/ccoTvhMz.s:640    .text.IS_Button:00000000 $t
     /tmp/ccoTvhMz.s:645    .text.IS_Button:00000000 IS_Button
     /tmp/ccoTvhMz.s:666    .text.IS_Button:0000000c $d
     /tmp/ccoTvhMz.s:671    .text.DebugPin_init:00000000 $t
     /tmp/ccoTvhMz.s:676    .text.DebugPin_init:00000000 DebugPin_init
     /tmp/ccoTvhMz.s:748    .text.DebugPin_init:00000058 $d
     /tmp/ccoTvhMz.s:754    .text.Timer_init:00000000 $t
     /tmp/ccoTvhMz.s:759    .text.Timer_init:00000000 Timer_init
     /tmp/ccoTvhMz.s:808    .text.Timer_init:00000034 $d
     /tmp/ccoTvhMz.s:814    .text.Button_init:00000000 $t
     /tmp/ccoTvhMz.s:819    .text.Button_init:00000000 Button_init
     /tmp/ccoTvhMz.s:883    .text.Button_init:00000044 $d
     /tmp/ccoTvhMz.s:889    .text.DebugPin4_ON:00000000 $t
     /tmp/ccoTvhMz.s:894    .text.DebugPin4_ON:00000000 DebugPin4_ON
     /tmp/ccoTvhMz.s:909    .text.DebugPin4_ON:00000008 $d
     /tmp/ccoTvhMz.s:914    .text.DebugPin4_OFF:00000000 $t
     /tmp/ccoTvhMz.s:919    .text.DebugPin4_OFF:00000000 DebugPin4_OFF
     /tmp/ccoTvhMz.s:934    .text.DebugPin4_OFF:0000000c $d
     /tmp/ccoTvhMz.s:939    .text.DebugPin5_ON:00000000 $t
     /tmp/ccoTvhMz.s:944    .text.DebugPin5_ON:00000000 DebugPin5_ON
     /tmp/ccoTvhMz.s:959    .text.DebugPin5_ON:00000008 $d
     /tmp/ccoTvhMz.s:964    .text.DebugPin5_OFF:00000000 $t
ARM GAS  /tmp/ccoTvhMz.s 			page 23


     /tmp/ccoTvhMz.s:969    .text.DebugPin5_OFF:00000000 DebugPin5_OFF
     /tmp/ccoTvhMz.s:984    .text.DebugPin5_OFF:0000000c $d
                     .debug_frame:00000010 $d

UNDEFINED SYMBOLS
HAL_GPIO_WritePin
HAL_GPIO_Init
Delay_us
HAL_IWDG_Refresh
hiwdg
HAL_Delay
HAL_GPIO_ReadPin
HAL_NVIC_SetPriority
HAL_NVIC_EnableIRQ
